TN:
SF:/home/atcsol/git/Proyecto-Final-OBDH-UAHExplorer/uah_exp_freertos_project_2024/asw/components/ccexplorermanager/include/public/ccexplorermanager_iface_v1.h
end_of_record
SF:/home/atcsol/git/Proyecto-Final-OBDH-UAHExplorer/uah_exp_freertos_project_2024/service_libraries/edroomsl/edroomsl/include/edroomsl/edroomsl.h
FN:115,_ZN11CEDROOMPoolD0Ev
FNDA:0,_ZN11CEDROOMPoolD0Ev
FN:115,_ZN11CEDROOMPoolD2Ev
FNDA:0,_ZN11CEDROOMPoolD2Ev
FN:236,_ZN17CEDROOMMemoryPoolD0Ev
FNDA:0,_ZN17CEDROOMMemoryPoolD0Ev
FN:236,_ZN17CEDROOMMemoryPoolD2Ev
FNDA:0,_ZN17CEDROOMMemoryPoolD2Ev
FN:314,_ZN26CEDROOMProtectedMemoryPoolD0Ev
FNDA:0,_ZN26CEDROOMProtectedMemoryPoolD0Ev
FN:314,_ZN26CEDROOMProtectedMemoryPoolD2Ev
FNDA:0,_ZN26CEDROOMProtectedMemoryPoolD2Ev
FN:726,_ZN19CEDROOMMessagesPoolD0Ev
FNDA:0,_ZN19CEDROOMMessagesPoolD0Ev
FN:726,_ZN19CEDROOMMessagesPoolD2Ev
FNDA:0,_ZN19CEDROOMMessagesPoolD2Ev
FN:761,_ZN26CEDROOMTimeOutMessagesPoolD0Ev
FNDA:0,_ZN26CEDROOMTimeOutMessagesPoolD0Ev
FN:761,_ZN26CEDROOMTimeOutMessagesPoolD2Ev
FNDA:0,_ZN26CEDROOMTimeOutMessagesPoolD2Ev
FN:1812,_ZN16CEDROOMTXChannelD0Ev
FNDA:0,_ZN16CEDROOMTXChannelD0Ev
FN:1812,_ZN16CEDROOMTXChannelD2Ev
FNDA:0,_ZN16CEDROOMTXChannelD2Ev
FN:1883,_ZN21CEDROOMLocalTXChannelD0Ev
FNDA:0,_ZN21CEDROOMLocalTXChannelD0Ev
FN:1883,_ZN21CEDROOMLocalTXChannelD2Ev
FNDA:0,_ZN21CEDROOMLocalTXChannelD2Ev
DA:115,0
DA:115,0
DA:236,0
DA:236,0
DA:314,0
DA:314,0
DA:726,0
DA:726,0
DA:761,0
DA:761,0
DA:1812,0
DA:1812,0
DA:1883,0
DA:1883,0
end_of_record
SF:/home/atcsol/git/Proyecto-Final-OBDH-UAHExplorer/uah_exp_freertos_project_2024/asw/components/uahexplorer/include/public/uahexplorer_iface_v1.h
end_of_record
SF:/home/atcsol/git/Proyecto-Final-OBDH-UAHExplorer/uah_exp_freertos_project_2024/uahexplorer_mmesp_project.cpp
FN:26,main
FNDA:1,main
DA:26,1
DA:37,1
DA:38,1
DA:39,1
DA:40,1
DA:41,1
DA:42,1
DA:44,1
DA:46,1
DA:48,0
DA:50,0
end_of_record
SF:/home/atcsol/git/Proyecto-Final-OBDH-UAHExplorer/uah_exp_freertos_project_2024/service_libraries/edroomsl/edroombp/include/public/edroombp.h
FN:122,_ZN9Pr_KernelD2Ev
FNDA:0,_ZN9Pr_KernelD2Ev
FN:192,_ZN12Pr_SemaphoreD2Ev
FNDA:0,_ZN12Pr_SemaphoreD2Ev
FN:261,_ZN15Pr_SemaphoreBinD2Ev
FNDA:0,_ZN15Pr_SemaphoreBinD2Ev
FN:337,_ZN15Pr_SemaphoreRecD2Ev
FNDA:0,_ZN15Pr_SemaphoreRecD2Ev
FN:533,_ZN7Pr_TaskD2Ev
FNDA:0,_ZN7Pr_TaskD2Ev
DA:122,0
DA:192,0
DA:194,0
DA:195,0
DA:261,0
DA:264,0
DA:337,0
DA:533,0
DA:536,0
end_of_record
SF:/home/atcsol/git/Proyecto-Final-OBDH-UAHExplorer/uah_exp_freertos_project_2024/asw/components/cchk_fdirmng/include/public/cchk_fdirmng_iface_v1.h
end_of_record
SF:/home/atcsol/git/Proyecto-Final-OBDH-UAHExplorer/uah_exp_freertos_project_2024/asw/components/ccguidance/include/public/ccguidance_iface_v1.h
end_of_record
SF:/home/atcsol/git/Proyecto-Final-OBDH-UAHExplorer/uah_exp_freertos_project_2024/asw/components/ccbkgtcexec/include/public/ccbkgtcexec_iface_v1.h
end_of_record
SF:/home/atcsol/git/Proyecto-Final-OBDH-UAHExplorer/uah_exp_freertos_project_2024/asw/edroom_glue/include/edroom_glue/edroomdeployment.h
FN:196,_ZN23CEDROOMSystemDeployment14GetComp1MemoryEv
FNDA:1,_ZN23CEDROOMSystemDeployment14GetComp1MemoryEv
FN:197,_ZN23CEDROOMSystemDeployment14GetComp2MemoryEv
FNDA:1,_ZN23CEDROOMSystemDeployment14GetComp2MemoryEv
FN:198,_ZN23CEDROOMSystemDeployment14GetComp3MemoryEv
FNDA:1,_ZN23CEDROOMSystemDeployment14GetComp3MemoryEv
FN:199,_ZN23CEDROOMSystemDeployment14GetComp4MemoryEv
FNDA:1,_ZN23CEDROOMSystemDeployment14GetComp4MemoryEv
FN:200,_ZN23CEDROOMSystemDeployment14GetComp5MemoryEv
FNDA:1,_ZN23CEDROOMSystemDeployment14GetComp5MemoryEv
FN:201,_ZN23CEDROOMSystemDeployment14GetComp6MemoryEv
FNDA:1,_ZN23CEDROOMSystemDeployment14GetComp6MemoryEv
DA:196,1
DA:197,1
DA:198,1
DA:199,1
DA:200,1
DA:201,1
end_of_record
SF:/home/atcsol/git/Proyecto-Final-OBDH-UAHExplorer/uah_exp_freertos_project_2024/asw/components/cctm_channelctrl/include/public/cctm_channelctrl_iface_v1.h
end_of_record
TN:
SF:/home/atcsol/git/Proyecto-Final-OBDH-UAHExplorer/uah_exp_freertos_project_2024/asw/edroom_glue/include/edroom_glue/edroomdeployment.h
end_of_record
SF:/home/atcsol/git/Proyecto-Final-OBDH-UAHExplorer/uah_exp_freertos_project_2024/asw/components/ccguidance/include/public/ccguidance_iface_v1.h
end_of_record
SF:/home/atcsol/git/Proyecto-Final-OBDH-UAHExplorer/uah_exp_freertos_project_2024/asw/components/ccbkgtcexec/include/public/ccbkgtcexec_iface_v1.h
end_of_record
SF:/home/atcsol/git/Proyecto-Final-OBDH-UAHExplorer/uah_exp_freertos_project_2024/asw/edroom_glue/src/edroomdeployment.cpp
FN:11,_Z8MainWaitR11UAHExplorerR17CCExplorerManagerR16CCTM_ChannelCtrlR12CCHK_FDIRMngR11CCBKGTCExecR10CCGuidance
FNDA:1,_Z8MainWaitR11UAHExplorerR17CCExplorerManagerR16CCTM_ChannelCtrlR12CCHK_FDIRMngR11CCBKGTCExecR10CCGuidance
FN:38,_ZN19CEDROOMSystemMemory9SetMemoryEv
FNDA:1,_ZN19CEDROOMSystemMemory9SetMemoryEv
FN:57,_ZN20CEDROOMSystemCommSAP13SetComponentsEP11UAHExplorerP17CCExplorerManagerP16CCTM_ChannelCtrlP12CCHK_FDIRMngP11CCBKGTCExecP10CCGuidance
FNDA:1,_ZN20CEDROOMSystemCommSAP13SetComponentsEP11UAHExplorerP17CCExplorerManagerP16CCTM_ChannelCtrlP12CCHK_FDIRMngP11CCBKGTCExecP10CCGuidance
FN:79,_ZN20CEDROOMSystemCommSAP49C2ExplorerManager_PGuidance__C6Guidance_PGuidanceEi
FNDA:4,_ZN20CEDROOMSystemCommSAP49C2ExplorerManager_PGuidance__C6Guidance_PGuidanceEi
FN:94,_ZN20CEDROOMSystemCommSAP49C6Guidance_PGuidance__C2ExplorerManager_PGuidanceEi
FNDA:0,_ZN20CEDROOMSystemCommSAP49C6Guidance_PGuidance__C2ExplorerManager_PGuidanceEi
FN:107,_ZN20CEDROOMSystemCommSAP59C6Guidance_PTMChannelCtrl__C3TM_ChannelCtrl_PTMChannelCtrl4Ei
FNDA:104,_ZN20CEDROOMSystemCommSAP59C6Guidance_PTMChannelCtrl__C3TM_ChannelCtrl_PTMChannelCtrl4Ei
FN:122,_ZN20CEDROOMSystemCommSAP59C3TM_ChannelCtrl_PTMChannelCtrl4__C6Guidance_PTMChannelCtrlEi
FNDA:104,_ZN20CEDROOMSystemCommSAP59C3TM_ChannelCtrl_PTMChannelCtrl4__C6Guidance_PTMChannelCtrlEi
FN:137,_ZN20CEDROOMSystemCommSAP56C5BKGTCExec_PBKGExecCtrl__C2ExplorerManager_PBKGExecCtrlEi
FNDA:0,_ZN20CEDROOMSystemCommSAP56C5BKGTCExec_PBKGExecCtrl__C2ExplorerManager_PBKGExecCtrlEi
FN:150,_ZN20CEDROOMSystemCommSAP56C2ExplorerManager_PBKGExecCtrl__C5BKGTCExec_PBKGExecCtrlEi
FNDA:0,_ZN20CEDROOMSystemCommSAP56C2ExplorerManager_PBKGExecCtrl__C5BKGTCExec_PBKGExecCtrlEi
FN:165,_ZN20CEDROOMSystemCommSAP60C3TM_ChannelCtrl_PTMChannelCtrl3__C5BKGTCExec_PTMChannelCtrlEi
FNDA:0,_ZN20CEDROOMSystemCommSAP60C3TM_ChannelCtrl_PTMChannelCtrl3__C5BKGTCExec_PTMChannelCtrlEi
FN:180,_ZN20CEDROOMSystemCommSAP60C5BKGTCExec_PTMChannelCtrl__C3TM_ChannelCtrl_PTMChannelCtrl3Ei
FNDA:0,_ZN20CEDROOMSystemCommSAP60C5BKGTCExec_PTMChannelCtrl__C3TM_ChannelCtrl_PTMChannelCtrl3Ei
FN:195,_ZN20CEDROOMSystemCommSAP61C4HK_FDIRMng_PTMChannelCtrl__C3TM_ChannelCtrl_PTMChannelCtrl2Ei
FNDA:99,_ZN20CEDROOMSystemCommSAP61C4HK_FDIRMng_PTMChannelCtrl__C3TM_ChannelCtrl_PTMChannelCtrl2Ei
FN:210,_ZN20CEDROOMSystemCommSAP61C3TM_ChannelCtrl_PTMChannelCtrl2__C4HK_FDIRMng_PTMChannelCtrlEi
FNDA:99,_ZN20CEDROOMSystemCommSAP61C3TM_ChannelCtrl_PTMChannelCtrl2__C4HK_FDIRMng_PTMChannelCtrlEi
FN:225,_ZN20CEDROOMSystemCommSAP57C2ExplorerManager_PHK_FDIRCtrl__C4HK_FDIRMng_PHK_FDIRCtrlEi
FNDA:0,_ZN20CEDROOMSystemCommSAP57C2ExplorerManager_PHK_FDIRCtrl__C4HK_FDIRMng_PHK_FDIRCtrlEi
FN:240,_ZN20CEDROOMSystemCommSAP57C4HK_FDIRMng_PHK_FDIRCtrl__C2ExplorerManager_PHK_FDIRCtrlEi
FNDA:0,_ZN20CEDROOMSystemCommSAP57C4HK_FDIRMng_PHK_FDIRCtrl__C2ExplorerManager_PHK_FDIRCtrlEi
FN:253,_ZN20CEDROOMSystemCommSAP65C2ExplorerManager_PTMChannelCtrl__C3TM_ChannelCtrl_PTMChannelCtrlEi
FNDA:6,_ZN20CEDROOMSystemCommSAP65C2ExplorerManager_PTMChannelCtrl__C3TM_ChannelCtrl_PTMChannelCtrlEi
FN:268,_ZN20CEDROOMSystemCommSAP65C3TM_ChannelCtrl_PTMChannelCtrl__C2ExplorerManager_PTMChannelCtrlEi
FNDA:6,_ZN20CEDROOMSystemCommSAP65C3TM_ChannelCtrl_PTMChannelCtrl__C2ExplorerManager_PTMChannelCtrlEi
FN:288,_ZN20CEDROOMSystemCommSAP18RegisterInterfacesEv
FNDA:1,_ZN20CEDROOMSystemCommSAP18RegisterInterfacesEv
FN:327,_ZN20CEDROOMSystemCommSAP19SetLocalConnectionsEv
FNDA:1,_ZN20CEDROOMSystemCommSAP19SetLocalConnectionsEv
FN:363,_ZN20CEDROOMSystemCommSAP20SetRemoteConnectionsEv
FNDA:1,_ZN20CEDROOMSystemCommSAP20SetRemoteConnectionsEv
FN:370,_ZN20CEDROOMSystemCommSAP14SetConnectionsEv
FNDA:1,_ZN20CEDROOMSystemCommSAP14SetConnectionsEv
FN:380,_ZN23CEDROOMSystemDeploymentC2Ev
FNDA:1,_ZN23CEDROOMSystemDeploymentC2Ev
FN:391,_ZN23CEDROOMSystemDeployment6ConfigEP11UAHExplorerP17CCExplorerManagerP16CCTM_ChannelCtrlP12CCHK_FDIRMngP11CCBKGTCExecP10CCGuidance
FNDA:1,_ZN23CEDROOMSystemDeployment6ConfigEP11UAHExplorerP17CCExplorerManagerP16CCTM_ChannelCtrlP12CCHK_FDIRMngP11CCBKGTCExecP10CCGuidance
FN:420,_ZN23CEDROOMSystemDeployment15StartComponentsEv
FNDA:1,_ZN23CEDROOMSystemDeployment15StartComponentsEv
FN:433,_ZN23CEDROOMSystemDeployment5StartEv
FNDA:1,_ZN23CEDROOMSystemDeployment5StartEv
FN:468,_ZN23CEDROOMSystemDeployment9main_taskEv
FNDA:1,_ZN23CEDROOMSystemDeployment9main_taskEv
DA:11,1
DA:18,1
DA:32,34
DA:38,1
DA:40,1
DA:41,1
DA:42,1
DA:43,1
DA:44,1
DA:45,1
DA:46,1
DA:47,1
DA:48,1
DA:49,1
DA:50,1
DA:51,1
DA:52,1
DA:57,1
DA:63,1
DA:64,1
DA:65,1
DA:66,1
DA:67,1
DA:68,1
DA:69,1
DA:79,4
DA:83,4
DA:85,4
DA:87,0
DA:90,4
DA:94,0
DA:100,0
DA:103,0
DA:107,104
DA:111,104
DA:113,104
DA:115,0
DA:118,104
DA:122,104
DA:126,104
DA:128,104
DA:130,0
DA:133,104
DA:137,0
DA:143,0
DA:146,0
DA:150,0
DA:154,0
DA:156,0
DA:158,0
DA:161,0
DA:165,0
DA:169,0
DA:171,0
DA:173,0
DA:176,0
DA:180,0
DA:184,0
DA:186,0
DA:188,0
DA:191,0
DA:195,99
DA:199,99
DA:201,99
DA:203,0
DA:206,99
DA:210,99
DA:214,99
DA:216,99
DA:218,0
DA:221,99
DA:225,0
DA:229,0
DA:231,0
DA:233,0
DA:236,0
DA:240,0
DA:246,0
DA:249,0
DA:253,6
DA:257,6
DA:259,6
DA:261,0
DA:264,6
DA:268,6
DA:272,6
DA:274,6
DA:276,0
DA:279,6
DA:288,1
DA:291,1
DA:294,1
DA:295,1
DA:296,1
DA:297,1
DA:298,1
DA:299,1
DA:302,1
DA:303,1
DA:304,1
DA:305,1
DA:308,1
DA:309,1
DA:310,1
DA:313,1
DA:314,1
DA:317,1
DA:318,1
DA:319,1
DA:321,1
DA:327,1
DA:329,1
DA:333,1
DA:337,1
DA:341,1
DA:345,1
DA:349,1
DA:353,1
DA:357,1
DA:363,1
DA:365,1
DA:370,1
DA:372,1
DA:373,1
DA:375,1
DA:380,1
DA:384,1
DA:386,1
DA:391,1
DA:398,1
DA:399,1
DA:400,1
DA:401,1
DA:402,1
DA:403,1
DA:405,1
DA:412,1
DA:413,1
DA:415,1
DA:420,1
DA:421,1
DA:422,1
DA:423,1
DA:424,1
DA:425,1
DA:426,1
DA:428,1
DA:433,1
DA:437,1
DA:439,1
DA:457,0
DA:468,1
DA:470,1
DA:471,1
DA:472,1
DA:473,1
DA:474,1
DA:475,1
DA:476,1
DA:478,0
end_of_record
SF:/home/atcsol/git/Proyecto-Final-OBDH-UAHExplorer/uah_exp_freertos_project_2024/asw/components/cctm_channelctrl/include/public/cctm_channelctrl_iface_v1.h
end_of_record
SF:/home/atcsol/git/Proyecto-Final-OBDH-UAHExplorer/uah_exp_freertos_project_2024/service_libraries/edroomsl/edroomsl/include/edroomsl/edroomsl.h
FN:115,_ZN11CEDROOMPoolD0Ev
FNDA:0,_ZN11CEDROOMPoolD0Ev
FN:115,_ZN11CEDROOMPoolD2Ev
FNDA:0,_ZN11CEDROOMPoolD2Ev
FN:236,_ZN17CEDROOMMemoryPoolD0Ev
FNDA:0,_ZN17CEDROOMMemoryPoolD0Ev
FN:236,_ZN17CEDROOMMemoryPoolD2Ev
FNDA:0,_ZN17CEDROOMMemoryPoolD2Ev
FN:726,_ZN19CEDROOMMessagesPoolD0Ev
FNDA:0,_ZN19CEDROOMMessagesPoolD0Ev
FN:726,_ZN19CEDROOMMessagesPoolD2Ev
FNDA:6,_ZN19CEDROOMMessagesPoolD2Ev
FN:761,_ZN26CEDROOMTimeOutMessagesPoolD0Ev
FNDA:0,_ZN26CEDROOMTimeOutMessagesPoolD0Ev
FN:761,_ZN26CEDROOMTimeOutMessagesPoolD2Ev
FNDA:3,_ZN26CEDROOMTimeOutMessagesPoolD2Ev
FN:1812,_ZN16CEDROOMTXChannelD0Ev
FNDA:0,_ZN16CEDROOMTXChannelD0Ev
FN:1812,_ZN16CEDROOMTXChannelD2Ev
FNDA:0,_ZN16CEDROOMTXChannelD2Ev
FN:1883,_ZN21CEDROOMLocalTXChannelD0Ev
FNDA:0,_ZN21CEDROOMLocalTXChannelD0Ev
FN:1883,_ZN21CEDROOMLocalTXChannelD2Ev
FNDA:0,_ZN21CEDROOMLocalTXChannelD2Ev
DA:115,0
DA:115,0
DA:236,0
DA:236,0
DA:726,0
DA:726,6
DA:761,0
DA:761,3
DA:1812,0
DA:1812,0
DA:1883,0
DA:1883,0
end_of_record
SF:/home/atcsol/git/Proyecto-Final-OBDH-UAHExplorer/uah_exp_freertos_project_2024/asw/components/uahexplorer/include/public/uahexplorer_iface_v1.h
end_of_record
SF:/home/atcsol/git/Proyecto-Final-OBDH-UAHExplorer/uah_exp_freertos_project_2024/asw/components/ccexplorermanager/include/public/ccexplorermanager_iface_v1.h
end_of_record
SF:/home/atcsol/git/Proyecto-Final-OBDH-UAHExplorer/uah_exp_freertos_project_2024/asw/components/cchk_fdirmng/include/public/cchk_fdirmng_iface_v1.h
end_of_record
SF:/home/atcsol/git/Proyecto-Final-OBDH-UAHExplorer/uah_exp_freertos_project_2024/service_libraries/edroomsl/edroombp/include/public/edroombp.h
FN:122,_ZN9Pr_KernelD2Ev
FNDA:1,_ZN9Pr_KernelD2Ev
FN:192,_ZN12Pr_SemaphoreD2Ev
FNDA:0,_ZN12Pr_SemaphoreD2Ev
FN:261,_ZN15Pr_SemaphoreBinD2Ev
FNDA:0,_ZN15Pr_SemaphoreBinD2Ev
FN:533,_ZN7Pr_TaskD2Ev
FNDA:0,_ZN7Pr_TaskD2Ev
DA:122,1
DA:192,0
DA:194,0
DA:195,0
DA:261,0
DA:264,0
DA:533,0
DA:536,0
end_of_record
TN:
SF:/home/atcsol/git/Proyecto-Final-OBDH-UAHExplorer/uah_exp_freertos_project_2024/asw/dataclasses/CDTCHandler/include/public/cdtchandler.h
FN:91,_ZN11CDTCHandler14IsValidTCFieldEh
FNDA:8,_ZN11CDTCHandler14IsValidTCFieldEh
DA:91,8
DA:92,8
end_of_record
SF:/home/atcsol/git/Proyecto-Final-OBDH-UAHExplorer/uah_exp_freertos_project_2024/asw/dataclasses/CDTCHandler/src/cdtchandler.cpp
FN:15,_ZN11CDTCHandler9HandleIRQEv
FNDA:0,_ZN11CDTCHandler9HandleIRQEv
FN:21,_ZN11CDTCHandlerC2Ev
FNDA:84,_ZN11CDTCHandlerC2Ev
FN:28,_ZN11CDTCHandler16StartUpExecutionEv
FNDA:5,_ZN11CDTCHandler16StartUpExecutionEv
FN:46,_ZN11CDTCHandler16FreeTCDescriptorEv
FNDA:5,_ZN11CDTCHandler16FreeTCDescriptorEv
FN:66,_ZN11CDTCHandler12GetNextUInt8Ev
FNDA:0,_ZN11CDTCHandler12GetNextUInt8Ev
FN:75,_ZN11CDTCHandler13GetNextUInt16Ev
FNDA:0,_ZN11CDTCHandler13GetNextUInt16Ev
FN:83,_ZN11CDTCHandler13GetNextUInt32Ev
FNDA:0,_ZN11CDTCHandler13GetNextUInt32Ev
FN:91,_ZN11CDTCHandler13GetNextUInt64Ev
FNDA:0,_ZN11CDTCHandler13GetNextUInt64Ev
FN:100,_ZN11CDTCHandler11GetNextInt8Ev
FNDA:0,_ZN11CDTCHandler11GetNextInt8Ev
FN:109,_ZN11CDTCHandler12GetNextInt16Ev
FNDA:0,_ZN11CDTCHandler12GetNextInt16Ev
FN:118,_ZN11CDTCHandler12GetNextInt32Ev
FNDA:0,_ZN11CDTCHandler12GetNextInt32Ev
FN:126,_ZN11CDTCHandler12GetNextInt64Ev
FNDA:0,_ZN11CDTCHandler12GetNextInt64Ev
FN:136,_ZN11CDTCHandler12GetNextFloatEv
FNDA:8,_ZN11CDTCHandler12GetNextFloatEv
FN:145,_ZN11CDTCHandler11GetPacketIDEv
FNDA:10,_ZN11CDTCHandler11GetPacketIDEv
FN:159,_ZN11CDTCHandler7GetAPIDEv
FNDA:5,_ZN11CDTCHandler7GetAPIDEv
FN:174,_ZN11CDTCHandler14GetPackSeqCtrlEv
FNDA:10,_ZN11CDTCHandler14GetPackSeqCtrlEv
FN:189,_ZN11CDTCHandler11GetSeqFlagsEv
FNDA:0,_ZN11CDTCHandler11GetSeqFlagsEv
FN:205,_ZN11CDTCHandler11GetSeqCountEv
FNDA:0,_ZN11CDTCHandler11GetSeqCountEv
FN:221,_ZN11CDTCHandler13GetPackLengthEv
FNDA:10,_ZN11CDTCHandler13GetPackLengthEv
FN:234,_ZN11CDTCHandler6GetAckEv
FNDA:0,_ZN11CDTCHandler6GetAckEv
FN:247,_ZN11CDTCHandler7GetTypeEv
FNDA:10,_ZN11CDTCHandler7GetTypeEv
FN:260,_ZN11CDTCHandler10GetSubTypeEv
FNDA:10,_ZN11CDTCHandler10GetSubTypeEv
FN:273,_ZN11CDTCHandler11GetSourceIDEv
FNDA:5,_ZN11CDTCHandler11GetSourceIDEv
FN:286,_ZN11CDTCHandler16GetCalculatedCRCEv
FNDA:5,_ZN11CDTCHandler16GetCalculatedCRCEv
FN:300,_ZN11CDTCHandler18GetPacketErrorCtrlEv
FNDA:5,_ZN11CDTCHandler18GetPacketErrorCtrlEv
DA:15,0
DA:17,0
DA:21,84
DA:23,84
DA:24,84
DA:25,84
DA:26,84
DA:28,5
DA:30,5
DA:32,5
DA:34,5
DA:38,0
DA:39,0
DA:42,5
DA:46,5
DA:48,5
DA:50,5
DA:52,5
DA:56,0
DA:58,5
DA:59,5
DA:61,5
DA:66,0
DA:68,0
DA:70,0
DA:71,0
DA:73,0
DA:75,0
DA:77,0
DA:78,0
DA:79,0
DA:81,0
DA:83,0
DA:85,0
DA:86,0
DA:87,0
DA:89,0
DA:91,0
DA:93,0
DA:94,0
DA:95,0
DA:97,0
DA:100,0
DA:102,0
DA:103,0
DA:104,0
DA:106,0
DA:109,0
DA:111,0
DA:112,0
DA:113,0
DA:115,0
DA:118,0
DA:120,0
DA:121,0
DA:122,0
DA:124,0
DA:126,0
DA:128,0
DA:129,0
DA:130,0
DA:132,0
DA:136,8
DA:138,8
DA:139,8
DA:140,8
DA:142,8
DA:145,10
DA:147,10
DA:149,10
DA:151,10
DA:154,10
DA:159,5
DA:161,5
DA:163,5
DA:165,5
DA:167,5
DA:170,5
DA:174,10
DA:176,10
DA:178,10
DA:180,10
DA:181,10
DA:185,10
DA:189,0
DA:191,0
DA:193,0
DA:195,0
DA:196,0
DA:198,0
DA:201,0
DA:205,0
DA:207,0
DA:209,0
DA:211,0
DA:212,0
DA:214,0
DA:218,0
DA:221,10
DA:223,10
DA:225,10
DA:227,10
DA:231,10
DA:234,0
DA:236,0
DA:238,0
DA:240,0
DA:243,0
DA:247,10
DA:249,10
DA:251,10
DA:253,10
DA:256,10
DA:260,10
DA:262,10
DA:264,10
DA:266,10
DA:269,10
DA:273,5
DA:275,5
DA:277,5
DA:279,5
DA:282,5
DA:286,5
DA:288,5
DA:290,5
DA:292,5
DA:293,5
DA:296,5
DA:300,5
DA:302,5
DA:304,5
DA:306,5
DA:308,5
DA:312,5
end_of_record
TN:
SF:/home/atcsol/git/Proyecto-Final-OBDH-UAHExplorer/uah_exp_freertos_project_2024/asw/dataclasses/CDTMHandler/src/cdtmhandler.cpp
FN:20,_ZN11CDTMHandlerC2Ehh
FNDA:78,_ZN11CDTMHandlerC2Ehh
FN:42,_ZN11CDTMHandler20SetUInt8AppDataFieldEh
FNDA:0,_ZN11CDTMHandler20SetUInt8AppDataFieldEh
FN:55,_ZN11CDTMHandler21SetUInt16AppDataFieldEt
FNDA:409,_ZN11CDTMHandler21SetUInt16AppDataFieldEt
FN:69,_ZN11CDTMHandler21SetUInt32AppDataFieldEj
FNDA:0,_ZN11CDTMHandler21SetUInt32AppDataFieldEj
FN:84,_ZN11CDTMHandler21SetUInt64AppDataFieldEm
FNDA:0,_ZN11CDTMHandler21SetUInt64AppDataFieldEm
FN:99,_ZN11CDTMHandler19SetInt8AppDataFieldEa
FNDA:0,_ZN11CDTMHandler19SetInt8AppDataFieldEa
FN:113,_ZN11CDTMHandler20SetInt16AppDataFieldEs
FNDA:0,_ZN11CDTMHandler20SetInt16AppDataFieldEs
FN:128,_ZN11CDTMHandler20SetInt32AppDataFieldEi
FNDA:0,_ZN11CDTMHandler20SetInt32AppDataFieldEi
FN:144,_ZN11CDTMHandler20SetInt64AppDataFieldEl
FNDA:0,_ZN11CDTMHandler20SetInt64AppDataFieldEl
FN:159,_ZN11CDTMHandler7CloseTMEv
FNDA:78,_ZN11CDTMHandler7CloseTMEv
FN:192,_ZN11CDTMHandler20SetFloatAppDataFieldEf
FNDA:0,_ZN11CDTMHandler20SetFloatAppDataFieldEf
DA:20,78
DA:23,78
DA:25,78
DA:27,78
DA:28,78
DA:29,78
DA:30,78
DA:32,78
DA:35,0
DA:37,0
DA:40,78
DA:42,0
DA:45,0
DA:47,0
DA:49,0
DA:53,0
DA:55,409
DA:58,409
DA:60,409
DA:61,409
DA:63,409
DA:67,409
DA:69,0
DA:72,0
DA:74,0
DA:75,0
DA:77,0
DA:82,0
DA:84,0
DA:87,0
DA:89,0
DA:90,0
DA:92,0
DA:97,0
DA:99,0
DA:103,0
DA:105,0
DA:107,0
DA:111,0
DA:113,0
DA:116,0
DA:118,0
DA:119,0
DA:121,0
DA:126,0
DA:128,0
DA:131,0
DA:133,0
DA:134,0
DA:136,0
DA:142,0
DA:144,0
DA:147,0
DA:149,0
DA:150,0
DA:152,0
DA:156,0
DA:159,78
DA:161,78
DA:163,78
DA:165,78
DA:166,78
DA:169,78
DA:172,78
DA:176,78
DA:179,78
DA:182,78
DA:184,78
DA:189,78
DA:192,0
DA:195,0
DA:197,0
DA:198,0
DA:199,0
DA:201,0
DA:206,0
end_of_record
TN:
SF:/home/atcsol/git/Proyecto-Final-OBDH-UAHExplorer/uah_exp_freertos_project_2024/asw/dataclasses/CDTMList/src/cdtmlist.cpp
FN:11,_ZN8CDTMList5AddTME13tm_descriptor
FNDA:78,_ZN8CDTMList5AddTME13tm_descriptor
FN:27,_ZN8CDTMListC2Ev
FNDA:48,_ZN8CDTMListC2Ev
FN:33,_ZN8CDTMListaSERKS_
FNDA:209,_ZN8CDTMListaSERKS_
DA:11,78
DA:13,78
DA:15,78
DA:17,78
DA:19,78
DA:21,78
DA:24,78
DA:27,48
DA:29,48
DA:31,48
DA:33,209
DA:35,209
DA:37,287
DA:38,78
DA:42,209
end_of_record
TN:
SF:/home/atcsol/git/Proyecto-Final-OBDH-UAHExplorer/uah_exp_freertos_project_2024/service_libraries/edroomsl/edroombp/include/public/edroombp.h
FN:192,_ZN12Pr_SemaphoreD2Ev
FNDA:0,_ZN12Pr_SemaphoreD2Ev
FN:261,_ZN15Pr_SemaphoreBinD2Ev
FNDA:0,_ZN15Pr_SemaphoreBinD2Ev
FN:337,_ZN15Pr_SemaphoreRecD2Ev
FNDA:0,_ZN15Pr_SemaphoreRecD2Ev
FN:533,_ZN7Pr_TaskD2Ev
FNDA:0,_ZN7Pr_TaskD2Ev
DA:192,0
DA:194,0
DA:195,0
DA:261,0
DA:264,0
DA:337,0
DA:533,0
DA:536,0
end_of_record
SF:/home/atcsol/git/Proyecto-Final-OBDH-UAHExplorer/uah_exp_freertos_project_2024/asw/components/cchk_fdirmng/include/public/cchk_fdirmng_iface_v1.h
end_of_record
SF:/home/atcsol/git/Proyecto-Final-OBDH-UAHExplorer/uah_exp_freertos_project_2024/asw/components/cchk_fdirmng/src/CCHK_FDIRMngS.cpp
FN:13,_ZN12CCHK_FDIRMngC2Ejj15TEDROOMPriorityjPNS_13CEDROOMMemoryE
FNDA:1,_ZN12CCHK_FDIRMngC2Ejj15TEDROOMPriorityjPNS_13CEDROOMMemoryE
FN:49,_ZN12CCHK_FDIRMng12EDROOMConfigEv
FNDA:0,_ZN12CCHK_FDIRMng12EDROOMConfigEv
FN:60,_ZN12CCHK_FDIRMng11EDROOMStartEv
FNDA:1,_ZN12CCHK_FDIRMng11EDROOMStartEv
FN:85,_ZN12CCHK_FDIRMng15EDROOMBehaviourEv
FNDA:1,_ZN12CCHK_FDIRMng15EDROOMBehaviourEv
FN:114,_ZN12CCHK_FDIRMng13CEDROOMMemory9SetMemoryEjP14CEDROOMMessagePbjPN12CEDROOMQueue10CQueueNodeES3_
FNDA:1,_ZN12CCHK_FDIRMng13CEDROOMMemory9SetMemoryEjP14CEDROOMMessagePbjPN12CEDROOMQueue10CQueueNodeES3_
DA:13,1
DA:17,1
DA:24,1
DA:28,1
DA:32,2
DA:38,1
DA:49,0
DA:53,0
DA:60,1
DA:66,1
DA:70,1
DA:72,1
DA:85,1
DA:88,1
DA:89,1
DA:91,0
DA:114,1
DA:122,1
DA:123,1
DA:125,1
DA:128,1
end_of_record
SF:/home/atcsol/git/Proyecto-Final-OBDH-UAHExplorer/uah_exp_freertos_project_2024/service_libraries/edroomsl/edroomsl/include/edroomsl/edroomsl.h
FN:115,_ZN11CEDROOMPoolD0Ev
FNDA:0,_ZN11CEDROOMPoolD0Ev
FN:115,_ZN11CEDROOMPoolD2Ev
FNDA:0,_ZN11CEDROOMPoolD2Ev
FN:236,_ZN17CEDROOMMemoryPoolD0Ev
FNDA:0,_ZN17CEDROOMMemoryPoolD0Ev
FN:236,_ZN17CEDROOMMemoryPoolD2Ev
FNDA:0,_ZN17CEDROOMMemoryPoolD2Ev
FN:314,_ZN26CEDROOMProtectedMemoryPoolD0Ev
FNDA:0,_ZN26CEDROOMProtectedMemoryPoolD0Ev
FN:314,_ZN26CEDROOMProtectedMemoryPoolD2Ev
FNDA:0,_ZN26CEDROOMProtectedMemoryPoolD2Ev
DA:115,0
DA:115,0
DA:236,0
DA:236,0
DA:314,0
DA:314,0
end_of_record
TN:
SF:/home/atcsol/git/Proyecto-Final-OBDH-UAHExplorer/uah_exp_freertos_project_2024/service_libraries/edroomsl/edroombp/include/public/edroombp.h
FN:192,_ZN12Pr_SemaphoreD2Ev
FNDA:0,_ZN12Pr_SemaphoreD2Ev
FN:337,_ZN15Pr_SemaphoreRecD2Ev
FNDA:0,_ZN15Pr_SemaphoreRecD2Ev
DA:192,0
DA:194,0
DA:195,0
DA:337,0
end_of_record
SF:/home/atcsol/git/Proyecto-Final-OBDH-UAHExplorer/uah_exp_freertos_project_2024/asw/components/cchk_fdirmng/include/public/cchk_fdirmng_iface_v1.h
FN:261,_ZN12CCHK_FDIRMng16EDROOM_CTX_Top_016EDROOMNewMessageEv
FNDA:100,_ZN12CCHK_FDIRMng16EDROOM_CTX_Top_016EDROOMNewMessageEv
DA:261,100
DA:262,100
end_of_record
SF:/home/atcsol/git/Proyecto-Final-OBDH-UAHExplorer/uah_exp_freertos_project_2024/service_libraries/edroomsl/edroomsl/include/edroomsl/edroomsl.h
FN:115,_ZN11CEDROOMPoolD0Ev
FNDA:0,_ZN11CEDROOMPoolD0Ev
FN:115,_ZN11CEDROOMPoolD2Ev
FNDA:0,_ZN11CEDROOMPoolD2Ev
FN:236,_ZN17CEDROOMMemoryPoolD0Ev
FNDA:0,_ZN17CEDROOMMemoryPoolD0Ev
FN:236,_ZN17CEDROOMMemoryPoolD2Ev
FNDA:0,_ZN17CEDROOMMemoryPoolD2Ev
FN:314,_ZN26CEDROOMProtectedMemoryPoolD0Ev
FNDA:0,_ZN26CEDROOMProtectedMemoryPoolD0Ev
FN:314,_ZN26CEDROOMProtectedMemoryPoolD2Ev
FNDA:0,_ZN26CEDROOMProtectedMemoryPoolD2Ev
DA:115,0
DA:115,0
DA:236,0
DA:236,0
DA:314,0
DA:314,0
end_of_record
SF:/home/atcsol/git/Proyecto-Final-OBDH-UAHExplorer/uah_exp_freertos_project_2024/asw/dataclasses/CDEventList/include/public/cdeventlist.h
FN:70,_ZN11CDEventList14ClearEventListEv
FNDA:0,_ZN11CDEventList14ClearEventListEv
FN:88,_ZN11CDEventListC2Ev
FNDA:105,_ZN11CDEventListC2Ev
DA:70,0
DA:71,0
DA:72,0
DA:74,0
DA:88,105
DA:90,105
DA:91,105
end_of_record
SF:/home/atcsol/git/Proyecto-Final-OBDH-UAHExplorer/uah_exp_freertos_project_2024/asw/dataclasses/CDTMList/include/public/cdtmlist.h
FN:49,_ZN8CDTMList5ClearEv
FNDA:209,_ZN8CDTMList5ClearEv
DA:49,209
end_of_record
SF:/home/atcsol/git/Proyecto-Final-OBDH-UAHExplorer/uah_exp_freertos_project_2024/asw/components/cchk_fdirmng/src/CCHK_FDIRMngB.cpp
FN:13,_ZN12CCHK_FDIRMng16EDROOM_CTX_Top_0C2ERS_R8CDTMListR7Pr_TimeRNS0_19CEDROOMPOOLCDTMListE
FNDA:1,_ZN12CCHK_FDIRMng16EDROOM_CTX_Top_0C2ERS_R8CDTMListR7Pr_TimeRNS0_19CEDROOMPOOLCDTMListE
FN:30,_ZN12CCHK_FDIRMng16EDROOM_CTX_Top_0C2ERS0_
FNDA:0,_ZN12CCHK_FDIRMng16EDROOM_CTX_Top_0C2ERS0_
FN:47,_ZN12CCHK_FDIRMng16EDROOM_CTX_Top_024EDROOMSearchContextTransER14TEDROOMTransId
FNDA:0,_ZN12CCHK_FDIRMng16EDROOM_CTX_Top_024EDROOMSearchContextTransER14TEDROOMTransId
FN:71,_ZN12CCHK_FDIRMng16EDROOM_CTX_Top_010FDoHK_FDIREv
FNDA:99,_ZN12CCHK_FDIRMng16EDROOM_CTX_Top_010FDoHK_FDIREv
FN:92,_ZN12CCHK_FDIRMng16EDROOM_CTX_Top_015FExecHK_FDIR_TCEv
FNDA:0,_ZN12CCHK_FDIRMng16EDROOM_CTX_Top_015FExecHK_FDIR_TCEv
FN:108,_ZN12CCHK_FDIRMng16EDROOM_CTX_Top_012FInitHK_FDIREv
FNDA:1,_ZN12CCHK_FDIRMng16EDROOM_CTX_Top_012FInitHK_FDIREv
FN:125,_ZN12CCHK_FDIRMng16EDROOM_CTX_Top_015FInvokeTxTMListEv
FNDA:99,_ZN12CCHK_FDIRMng16EDROOM_CTX_Top_015FInvokeTxTMListEv
FN:141,_ZN12CCHK_FDIRMng16EDROOM_CTX_Top_016FTriggerEvActionEv
FNDA:0,_ZN12CCHK_FDIRMng16EDROOM_CTX_Top_016FTriggerEvActionEv
FN:151,_ZN12CCHK_FDIRMng16EDROOM_CTX_Top_016GPendingEvActionEv
FNDA:99,_ZN12CCHK_FDIRMng16EDROOM_CTX_Top_016GPendingEvActionEv
FN:167,_ZN12CCHK_FDIRMng16EDROOM_CTX_Top_019CEDROOMPOOLCDTMListC2EjP8CDTMListPb
FNDA:1,_ZN12CCHK_FDIRMng16EDROOM_CTX_Top_019CEDROOMPOOLCDTMListC2EjP8CDTMListPb
FN:174,_ZN12CCHK_FDIRMng16EDROOM_CTX_Top_019CEDROOMPOOLCDTMList9AllocDataEv
FNDA:99,_ZN12CCHK_FDIRMng16EDROOM_CTX_Top_019CEDROOMPOOLCDTMList9AllocDataEv
FN:191,_ZN12CCHK_FDIRMng16EDROOM_SUB_Top_0C2ERS_PNS_13CEDROOMMemoryE
FNDA:1,_ZN12CCHK_FDIRMng16EDROOM_SUB_Top_0C2ERS_PNS_13CEDROOMMemoryE
FN:206,_ZN12CCHK_FDIRMng16EDROOM_SUB_Top_015EDROOMBehaviourEv
FNDA:1,_ZN12CCHK_FDIRMng16EDROOM_SUB_Top_015EDROOMBehaviourEv
FN:301,_ZN12CCHK_FDIRMng16EDROOM_SUB_Top_010EDROOMInitEv
FNDA:1,_ZN12CCHK_FDIRMng16EDROOM_SUB_Top_010EDROOMInitEv
FN:318,_ZN12CCHK_FDIRMng16EDROOM_SUB_Top_014EDROOMIArrivalEv
FNDA:1,_ZN12CCHK_FDIRMng16EDROOM_SUB_Top_014EDROOMIArrivalEv
FN:340,_ZN12CCHK_FDIRMng16EDROOM_SUB_Top_018EDROOMReadyArrivalEv
FNDA:100,_ZN12CCHK_FDIRMng16EDROOM_SUB_Top_018EDROOMReadyArrivalEv
DA:13,1
DA:16,1
DA:18,1
DA:19,1
DA:20,1
DA:21,1
DA:22,1
DA:23,1
DA:24,1
DA:25,1
DA:26,1
DA:28,1
DA:30,0
DA:32,0
DA:33,0
DA:34,0
DA:35,0
DA:36,0
DA:37,0
DA:38,0
DA:39,0
DA:40,0
DA:43,0
DA:47,0
DA:51,0
DA:53,0
DA:56,0
DA:58,0
DA:59,0
DA:60,0
DA:61,0
DA:65,0
DA:71,99
DA:75,99
DA:77,99
DA:78,99
DA:80,99
DA:81,99
DA:82,99
DA:83,99
DA:84,99
DA:87,99
DA:88,99
DA:92,0
DA:96,0
DA:100,0
DA:102,0
DA:104,0
DA:108,1
DA:112,1
DA:114,1
DA:115,1
DA:116,1
DA:117,1
DA:120,1
DA:121,1
DA:125,99
DA:129,99
DA:133,99
DA:134,99
DA:136,99
DA:137,99
DA:141,0
DA:145,0
DA:147,0
DA:151,99
DA:156,99
DA:167,1
DA:168,1
DA:170,1
DA:172,1
DA:174,99
DA:176,99
DA:191,1
DA:192,1
DA:194,1
DA:195,1
DA:196,1
DA:197,1
DA:198,1
DA:199,1
DA:202,1
DA:206,1
DA:213,1
DA:220,100
DA:224,1
DA:226,1
DA:228,1
DA:229,1
DA:231,0
DA:233,0
DA:235,0
DA:237,0
DA:238,0
DA:240,99
DA:243,99
DA:245,99
DA:247,99
DA:250,0
DA:253,0
DA:257,0
DA:264,99
DA:268,99
DA:270,99
DA:274,100
DA:278,0
DA:280,0
DA:281,0
DA:284,100
DA:286,100
DA:287,99
DA:291,99
DA:293,99
DA:295,0
DA:301,1
DA:304,1
DA:306,1
DA:318,1
DA:324,1
DA:325,1
DA:326,1
DA:340,100
DA:345,100
DA:350,100
DA:352,99
DA:355,0
DA:357,0
DA:361,0
DA:362,0
DA:363,0
DA:366,0
DA:368,99
DA:370,99
DA:374,99
DA:375,99
DA:376,99
DA:379,99
DA:383,99
DA:385,0
DA:389,99
DA:391,99
end_of_record
TN:
SF:/home/atcsol/git/Proyecto-Final-OBDH-UAHExplorer/uah_exp_freertos_project_2024/service_libraries/edroomsl/edroomsl/include/edroomsl/edroomsl.h
FN:115,_ZN11CEDROOMPoolD0Ev
FNDA:0,_ZN11CEDROOMPoolD0Ev
FN:115,_ZN11CEDROOMPoolD2Ev
FNDA:0,_ZN11CEDROOMPoolD2Ev
FN:236,_ZN17CEDROOMMemoryPoolD0Ev
FNDA:0,_ZN17CEDROOMMemoryPoolD0Ev
FN:236,_ZN17CEDROOMMemoryPoolD2Ev
FNDA:0,_ZN17CEDROOMMemoryPoolD2Ev
FN:314,_ZN26CEDROOMProtectedMemoryPoolD0Ev
FNDA:0,_ZN26CEDROOMProtectedMemoryPoolD0Ev
FN:314,_ZN26CEDROOMProtectedMemoryPoolD2Ev
FNDA:0,_ZN26CEDROOMProtectedMemoryPoolD2Ev
DA:115,0
DA:115,0
DA:236,0
DA:236,0
DA:314,0
DA:314,0
end_of_record
SF:/home/atcsol/git/Proyecto-Final-OBDH-UAHExplorer/uah_exp_freertos_project_2024/service_libraries/edroomsl/edroombp/include/public/edroombp.h
FN:192,_ZN12Pr_SemaphoreD2Ev
FNDA:0,_ZN12Pr_SemaphoreD2Ev
FN:337,_ZN15Pr_SemaphoreRecD2Ev
FNDA:0,_ZN15Pr_SemaphoreRecD2Ev
DA:192,0
DA:194,0
DA:195,0
DA:337,0
end_of_record
SF:/home/atcsol/git/Proyecto-Final-OBDH-UAHExplorer/uah_exp_freertos_project_2024/asw/components/ccguidance/src/CCGuidanceB.cpp
FN:13,_ZN10CCGuidance16EDROOM_CTX_Top_0C2ERS_R8CDTMListR7Pr_TimeRNS0_19CEDROOMPOOLCDTMListE
FNDA:1,_ZN10CCGuidance16EDROOM_CTX_Top_0C2ERS_R8CDTMListR7Pr_TimeRNS0_19CEDROOMPOOLCDTMListE
FN:30,_ZN10CCGuidance16EDROOM_CTX_Top_0C2ERS0_
FNDA:0,_ZN10CCGuidance16EDROOM_CTX_Top_0C2ERS0_
FN:47,_ZN10CCGuidance16EDROOM_CTX_Top_024EDROOMSearchContextTransER14TEDROOMTransId
FNDA:0,_ZN10CCGuidance16EDROOM_CTX_Top_024EDROOMSearchContextTransER14TEDROOMTransId
FN:71,_ZN10CCGuidance16EDROOM_CTX_Top_011FDoGuidanceEv
FNDA:100,_ZN10CCGuidance16EDROOM_CTX_Top_011FDoGuidanceEv
FN:85,_ZN10CCGuidance16EDROOM_CTX_Top_013FExecGuidanceEv
FNDA:4,_ZN10CCGuidance16EDROOM_CTX_Top_013FExecGuidanceEv
FN:97,_ZN10CCGuidance16EDROOM_CTX_Top_013FInitGuidanceEv
FNDA:1,_ZN10CCGuidance16EDROOM_CTX_Top_013FInitGuidanceEv
FN:111,_ZN10CCGuidance16EDROOM_CTX_Top_015FInvokeTxTMListEv
FNDA:104,_ZN10CCGuidance16EDROOM_CTX_Top_015FInvokeTxTMListEv
FN:128,_ZN10CCGuidance16EDROOM_CTX_Top_019CEDROOMPOOLCDTMListC2EjP8CDTMListPb
FNDA:1,_ZN10CCGuidance16EDROOM_CTX_Top_019CEDROOMPOOLCDTMListC2EjP8CDTMListPb
FN:135,_ZN10CCGuidance16EDROOM_CTX_Top_019CEDROOMPOOLCDTMList9AllocDataEv
FNDA:104,_ZN10CCGuidance16EDROOM_CTX_Top_019CEDROOMPOOLCDTMList9AllocDataEv
FN:152,_ZN10CCGuidance16EDROOM_SUB_Top_0C2ERS_PNS_13CEDROOMMemoryE
FNDA:1,_ZN10CCGuidance16EDROOM_SUB_Top_0C2ERS_PNS_13CEDROOMMemoryE
FN:167,_ZN10CCGuidance16EDROOM_SUB_Top_015EDROOMBehaviourEv
FNDA:1,_ZN10CCGuidance16EDROOM_SUB_Top_015EDROOMBehaviourEv
FN:239,_ZN10CCGuidance16EDROOM_SUB_Top_010EDROOMInitEv
FNDA:1,_ZN10CCGuidance16EDROOM_SUB_Top_010EDROOMInitEv
FN:256,_ZN10CCGuidance16EDROOM_SUB_Top_014EDROOMIArrivalEv
FNDA:1,_ZN10CCGuidance16EDROOM_SUB_Top_014EDROOMIArrivalEv
FN:278,_ZN10CCGuidance16EDROOM_SUB_Top_018EDROOMReadyArrivalEv
FNDA:105,_ZN10CCGuidance16EDROOM_SUB_Top_018EDROOMReadyArrivalEv
DA:13,1
DA:16,1
DA:18,1
DA:19,1
DA:20,1
DA:21,1
DA:22,1
DA:23,1
DA:24,1
DA:25,1
DA:26,1
DA:28,1
DA:30,0
DA:32,0
DA:33,0
DA:34,0
DA:35,0
DA:36,0
DA:37,0
DA:38,0
DA:39,0
DA:40,0
DA:43,0
DA:47,0
DA:51,0
DA:53,0
DA:56,0
DA:58,0
DA:59,0
DA:60,0
DA:61,0
DA:65,0
DA:71,100
DA:75,100
DA:76,100
DA:77,100
DA:78,100
DA:80,100
DA:81,100
DA:85,4
DA:89,4
DA:90,4
DA:91,4
DA:93,4
DA:97,1
DA:101,1
DA:102,1
DA:103,1
DA:104,1
DA:106,1
DA:107,1
DA:111,104
DA:115,104
DA:116,104
DA:117,104
DA:119,104
DA:120,104
DA:128,1
DA:129,1
DA:131,1
DA:133,1
DA:135,104
DA:137,104
DA:152,1
DA:153,1
DA:155,1
DA:156,1
DA:157,1
DA:158,1
DA:159,1
DA:160,1
DA:163,1
DA:167,1
DA:174,1
DA:181,105
DA:185,1
DA:187,1
DA:189,1
DA:190,1
DA:192,4
DA:194,4
DA:196,4
DA:198,4
DA:199,4
DA:201,100
DA:203,100
DA:205,100
DA:207,100
DA:208,100
DA:212,105
DA:216,0
DA:218,0
DA:219,0
DA:222,105
DA:224,105
DA:225,104
DA:229,104
DA:231,104
DA:233,0
DA:239,1
DA:242,1
DA:244,1
DA:256,1
DA:262,1
DA:263,1
DA:264,1
DA:278,105
DA:283,105
DA:288,105
DA:290,104
DA:293,4
DA:295,4
DA:299,4
DA:300,4
DA:301,4
DA:304,4
DA:306,100
DA:308,100
DA:312,100
DA:313,100
DA:314,100
DA:317,100
DA:321,104
DA:323,0
DA:327,104
DA:329,104
end_of_record
SF:/home/atcsol/git/Proyecto-Final-OBDH-UAHExplorer/uah_exp_freertos_project_2024/asw/components/ccguidance/include/public/ccguidance_iface_v1.h
FN:259,_ZN10CCGuidance16EDROOM_CTX_Top_016EDROOMNewMessageEv
FNDA:105,_ZN10CCGuidance16EDROOM_CTX_Top_016EDROOMNewMessageEv
DA:259,105
DA:260,105
end_of_record
SF:/home/atcsol/git/Proyecto-Final-OBDH-UAHExplorer/uah_exp_freertos_project_2024/asw/dataclasses/CDEventList/include/public/cdeventlist.h
FN:70,_ZN11CDEventList14ClearEventListEv
FNDA:0,_ZN11CDEventList14ClearEventListEv
FN:88,_ZN11CDEventListC2Ev
FNDA:0,_ZN11CDEventListC2Ev
DA:70,0
DA:71,0
DA:72,0
DA:74,0
DA:88,0
DA:90,0
DA:91,0
end_of_record
SF:/home/atcsol/git/Proyecto-Final-OBDH-UAHExplorer/uah_exp_freertos_project_2024/asw/dataclasses/CDTMList/include/public/cdtmlist.h
FN:49,_ZN8CDTMList5ClearEv
FNDA:0,_ZN8CDTMList5ClearEv
DA:49,0
end_of_record
TN:
SF:/home/atcsol/git/Proyecto-Final-OBDH-UAHExplorer/uah_exp_freertos_project_2024/asw/components/ccguidance/include/public/ccguidance_iface_v1.h
end_of_record
SF:/home/atcsol/git/Proyecto-Final-OBDH-UAHExplorer/uah_exp_freertos_project_2024/asw/components/ccguidance/src/CCGuidanceS.cpp
FN:13,_ZN10CCGuidanceC2Ejj15TEDROOMPriorityjPNS_13CEDROOMMemoryE
FNDA:1,_ZN10CCGuidanceC2Ejj15TEDROOMPriorityjPNS_13CEDROOMMemoryE
FN:49,_ZN10CCGuidance12EDROOMConfigEv
FNDA:0,_ZN10CCGuidance12EDROOMConfigEv
FN:60,_ZN10CCGuidance11EDROOMStartEv
FNDA:1,_ZN10CCGuidance11EDROOMStartEv
FN:85,_ZN10CCGuidance15EDROOMBehaviourEv
FNDA:1,_ZN10CCGuidance15EDROOMBehaviourEv
FN:114,_ZN10CCGuidance13CEDROOMMemory9SetMemoryEjP14CEDROOMMessagePbjPN12CEDROOMQueue10CQueueNodeES3_
FNDA:1,_ZN10CCGuidance13CEDROOMMemory9SetMemoryEjP14CEDROOMMessagePbjPN12CEDROOMQueue10CQueueNodeES3_
DA:13,1
DA:17,1
DA:24,1
DA:28,1
DA:32,2
DA:38,1
DA:49,0
DA:53,0
DA:60,1
DA:66,1
DA:70,1
DA:72,1
DA:85,1
DA:88,1
DA:89,1
DA:91,0
DA:114,1
DA:122,1
DA:123,1
DA:125,1
DA:128,1
end_of_record
SF:/home/atcsol/git/Proyecto-Final-OBDH-UAHExplorer/uah_exp_freertos_project_2024/service_libraries/edroomsl/edroomsl/include/edroomsl/edroomsl.h
FN:115,_ZN11CEDROOMPoolD0Ev
FNDA:0,_ZN11CEDROOMPoolD0Ev
FN:115,_ZN11CEDROOMPoolD2Ev
FNDA:0,_ZN11CEDROOMPoolD2Ev
FN:236,_ZN17CEDROOMMemoryPoolD0Ev
FNDA:0,_ZN17CEDROOMMemoryPoolD0Ev
FN:236,_ZN17CEDROOMMemoryPoolD2Ev
FNDA:0,_ZN17CEDROOMMemoryPoolD2Ev
FN:314,_ZN26CEDROOMProtectedMemoryPoolD0Ev
FNDA:0,_ZN26CEDROOMProtectedMemoryPoolD0Ev
FN:314,_ZN26CEDROOMProtectedMemoryPoolD2Ev
FNDA:0,_ZN26CEDROOMProtectedMemoryPoolD2Ev
DA:115,0
DA:115,0
DA:236,0
DA:236,0
DA:314,0
DA:314,0
end_of_record
SF:/home/atcsol/git/Proyecto-Final-OBDH-UAHExplorer/uah_exp_freertos_project_2024/service_libraries/edroomsl/edroombp/include/public/edroombp.h
FN:192,_ZN12Pr_SemaphoreD2Ev
FNDA:0,_ZN12Pr_SemaphoreD2Ev
FN:261,_ZN15Pr_SemaphoreBinD2Ev
FNDA:0,_ZN15Pr_SemaphoreBinD2Ev
FN:337,_ZN15Pr_SemaphoreRecD2Ev
FNDA:0,_ZN15Pr_SemaphoreRecD2Ev
FN:533,_ZN7Pr_TaskD2Ev
FNDA:0,_ZN7Pr_TaskD2Ev
DA:192,0
DA:194,0
DA:195,0
DA:261,0
DA:264,0
DA:337,0
DA:533,0
DA:536,0
end_of_record
TN:
SF:/home/atcsol/git/Proyecto-Final-OBDH-UAHExplorer/uah_exp_freertos_project_2024/service_libraries/edroomsl/edroomsl/include/edroomsl/edroomsl.h
FN:115,_ZN11CEDROOMPoolD0Ev
FNDA:0,_ZN11CEDROOMPoolD0Ev
FN:115,_ZN11CEDROOMPoolD2Ev
FNDA:0,_ZN11CEDROOMPoolD2Ev
FN:236,_ZN17CEDROOMMemoryPoolD0Ev
FNDA:0,_ZN17CEDROOMMemoryPoolD0Ev
FN:236,_ZN17CEDROOMMemoryPoolD2Ev
FNDA:0,_ZN17CEDROOMMemoryPoolD2Ev
FN:314,_ZN26CEDROOMProtectedMemoryPoolD0Ev
FNDA:0,_ZN26CEDROOMProtectedMemoryPoolD0Ev
FN:314,_ZN26CEDROOMProtectedMemoryPoolD2Ev
FNDA:0,_ZN26CEDROOMProtectedMemoryPoolD2Ev
DA:115,0
DA:115,0
DA:236,0
DA:236,0
DA:314,0
DA:314,0
end_of_record
SF:/home/atcsol/git/Proyecto-Final-OBDH-UAHExplorer/uah_exp_freertos_project_2024/service_libraries/edroomsl/edroombp/include/public/edroombp.h
FN:192,_ZN12Pr_SemaphoreD2Ev
FNDA:0,_ZN12Pr_SemaphoreD2Ev
FN:337,_ZN15Pr_SemaphoreRecD2Ev
FNDA:0,_ZN15Pr_SemaphoreRecD2Ev
DA:192,0
DA:194,0
DA:195,0
DA:337,0
end_of_record
SF:/home/atcsol/git/Proyecto-Final-OBDH-UAHExplorer/uah_exp_freertos_project_2024/asw/components/ccbkgtcexec/src/CCBKGTCExecB.cpp
FN:13,_ZN11CCBKGTCExec16EDROOM_CTX_Top_0C2ERS_R11CDEventListR8CDTMListRNS0_19CEDROOMPOOLCDTMListE
FNDA:1,_ZN11CCBKGTCExec16EDROOM_CTX_Top_0C2ERS_R11CDEventListR8CDTMListRNS0_19CEDROOMPOOLCDTMListE
FN:29,_ZN11CCBKGTCExec16EDROOM_CTX_Top_0C2ERS0_
FNDA:0,_ZN11CCBKGTCExec16EDROOM_CTX_Top_0C2ERS0_
FN:45,_ZN11CCBKGTCExec16EDROOM_CTX_Top_024EDROOMSearchContextTransER14TEDROOMTransId
FNDA:0,_ZN11CCBKGTCExec16EDROOM_CTX_Top_024EDROOMSearchContextTransER14TEDROOMTransId
FN:69,_ZN11CCBKGTCExec16EDROOM_CTX_Top_010FExecBKGTCEv
FNDA:0,_ZN11CCBKGTCExec16EDROOM_CTX_Top_010FExecBKGTCEv
FN:85,_ZN11CCBKGTCExec16EDROOM_CTX_Top_09FTxTMListEv
FNDA:0,_ZN11CCBKGTCExec16EDROOM_CTX_Top_09FTxTMListEv
FN:105,_ZN11CCBKGTCExec16EDROOM_CTX_Top_019CEDROOMPOOLCDTMListC2EjP8CDTMListPb
FNDA:1,_ZN11CCBKGTCExec16EDROOM_CTX_Top_019CEDROOMPOOLCDTMListC2EjP8CDTMListPb
FN:112,_ZN11CCBKGTCExec16EDROOM_CTX_Top_019CEDROOMPOOLCDTMList9AllocDataEv
FNDA:0,_ZN11CCBKGTCExec16EDROOM_CTX_Top_019CEDROOMPOOLCDTMList9AllocDataEv
FN:129,_ZN11CCBKGTCExec16EDROOM_SUB_Top_0C2ERS_PNS_13CEDROOMMemoryE
FNDA:1,_ZN11CCBKGTCExec16EDROOM_SUB_Top_0C2ERS_PNS_13CEDROOMMemoryE
FN:144,_ZN11CCBKGTCExec16EDROOM_SUB_Top_015EDROOMBehaviourEv
FNDA:1,_ZN11CCBKGTCExec16EDROOM_SUB_Top_015EDROOMBehaviourEv
FN:205,_ZN11CCBKGTCExec16EDROOM_SUB_Top_010EDROOMInitEv
FNDA:1,_ZN11CCBKGTCExec16EDROOM_SUB_Top_010EDROOMInitEv
FN:222,_ZN11CCBKGTCExec16EDROOM_SUB_Top_014EDROOMIArrivalEv
FNDA:1,_ZN11CCBKGTCExec16EDROOM_SUB_Top_014EDROOMIArrivalEv
FN:244,_ZN11CCBKGTCExec16EDROOM_SUB_Top_018EDROOMReadyArrivalEv
FNDA:1,_ZN11CCBKGTCExec16EDROOM_SUB_Top_018EDROOMReadyArrivalEv
DA:13,1
DA:16,1
DA:18,1
DA:19,1
DA:20,1
DA:21,1
DA:22,1
DA:23,1
DA:24,1
DA:25,1
DA:27,1
DA:29,0
DA:31,0
DA:32,0
DA:33,0
DA:34,0
DA:35,0
DA:36,0
DA:37,0
DA:38,0
DA:41,0
DA:45,0
DA:49,0
DA:51,0
DA:54,0
DA:56,0
DA:57,0
DA:58,0
DA:59,0
DA:63,0
DA:69,0
DA:73,0
DA:78,0
DA:79,0
DA:81,0
DA:85,0
DA:89,0
DA:93,0
DA:94,0
DA:96,0
DA:97,0
DA:105,1
DA:106,1
DA:108,1
DA:110,1
DA:112,0
DA:114,0
DA:129,1
DA:130,1
DA:132,1
DA:133,1
DA:134,1
DA:135,1
DA:136,1
DA:137,1
DA:140,1
DA:144,1
DA:151,1
DA:158,1
DA:162,1
DA:164,1
DA:165,1
DA:167,0
DA:169,0
DA:171,0
DA:173,0
DA:174,0
DA:178,1
DA:182,0
DA:184,0
DA:185,0
DA:188,1
DA:190,1
DA:191,0
DA:195,0
DA:197,0
DA:199,0
DA:205,1
DA:208,1
DA:210,1
DA:222,1
DA:228,1
DA:229,1
DA:230,1
DA:244,1
DA:249,1
DA:254,1
DA:256,0
DA:259,0
DA:261,0
DA:265,0
DA:266,0
DA:267,0
DA:270,0
DA:274,0
DA:276,0
DA:280,0
DA:282,0
end_of_record
SF:/home/atcsol/git/Proyecto-Final-OBDH-UAHExplorer/uah_exp_freertos_project_2024/asw/components/ccbkgtcexec/include/public/ccbkgtcexec_iface_v1.h
FN:232,_ZN11CCBKGTCExec16EDROOM_CTX_Top_016EDROOMNewMessageEv
FNDA:1,_ZN11CCBKGTCExec16EDROOM_CTX_Top_016EDROOMNewMessageEv
DA:232,1
DA:233,1
end_of_record
SF:/home/atcsol/git/Proyecto-Final-OBDH-UAHExplorer/uah_exp_freertos_project_2024/asw/dataclasses/CDTMList/include/public/cdtmlist.h
FN:49,_ZN8CDTMList5ClearEv
FNDA:0,_ZN8CDTMList5ClearEv
DA:49,0
end_of_record
SF:/home/atcsol/git/Proyecto-Final-OBDH-UAHExplorer/uah_exp_freertos_project_2024/asw/dataclasses/CDEventList/include/public/cdeventlist.h
FN:70,_ZN11CDEventList14ClearEventListEv
FNDA:0,_ZN11CDEventList14ClearEventListEv
FN:88,_ZN11CDEventListC2Ev
FNDA:0,_ZN11CDEventListC2Ev
DA:70,0
DA:71,0
DA:72,0
DA:74,0
DA:88,0
DA:90,0
DA:91,0
end_of_record
TN:
SF:/home/atcsol/git/Proyecto-Final-OBDH-UAHExplorer/uah_exp_freertos_project_2024/asw/components/ccbkgtcexec/include/public/ccbkgtcexec_iface_v1.h
end_of_record
SF:/home/atcsol/git/Proyecto-Final-OBDH-UAHExplorer/uah_exp_freertos_project_2024/asw/components/ccbkgtcexec/src/CCBKGTCExecS.cpp
FN:13,_ZN11CCBKGTCExecC2Ejj15TEDROOMPriorityjPNS_13CEDROOMMemoryE
FNDA:1,_ZN11CCBKGTCExecC2Ejj15TEDROOMPriorityjPNS_13CEDROOMMemoryE
FN:41,_ZN11CCBKGTCExec12EDROOMConfigEv
FNDA:0,_ZN11CCBKGTCExec12EDROOMConfigEv
FN:52,_ZN11CCBKGTCExec11EDROOMStartEv
FNDA:1,_ZN11CCBKGTCExec11EDROOMStartEv
FN:73,_ZN11CCBKGTCExec15EDROOMBehaviourEv
FNDA:1,_ZN11CCBKGTCExec15EDROOMBehaviourEv
FN:102,_ZN11CCBKGTCExec13CEDROOMMemory9SetMemoryEjP14CEDROOMMessagePbjPN12CEDROOMQueue10CQueueNodeES3_
FNDA:1,_ZN11CCBKGTCExec13CEDROOMMemory9SetMemoryEjP14CEDROOMMessagePbjPN12CEDROOMQueue10CQueueNodeES3_
DA:13,1
DA:17,1
DA:24,1
DA:30,1
DA:41,0
DA:45,0
DA:52,1
DA:58,1
DA:60,1
DA:73,1
DA:76,1
DA:77,1
DA:79,0
DA:102,1
DA:110,1
DA:111,1
DA:114,1
end_of_record
SF:/home/atcsol/git/Proyecto-Final-OBDH-UAHExplorer/uah_exp_freertos_project_2024/service_libraries/edroomsl/edroomsl/include/edroomsl/edroomsl.h
FN:115,_ZN11CEDROOMPoolD0Ev
FNDA:0,_ZN11CEDROOMPoolD0Ev
FN:115,_ZN11CEDROOMPoolD2Ev
FNDA:0,_ZN11CEDROOMPoolD2Ev
FN:236,_ZN17CEDROOMMemoryPoolD0Ev
FNDA:0,_ZN17CEDROOMMemoryPoolD0Ev
FN:236,_ZN17CEDROOMMemoryPoolD2Ev
FNDA:0,_ZN17CEDROOMMemoryPoolD2Ev
FN:314,_ZN26CEDROOMProtectedMemoryPoolD0Ev
FNDA:0,_ZN26CEDROOMProtectedMemoryPoolD0Ev
FN:314,_ZN26CEDROOMProtectedMemoryPoolD2Ev
FNDA:0,_ZN26CEDROOMProtectedMemoryPoolD2Ev
DA:115,0
DA:115,0
DA:236,0
DA:236,0
DA:314,0
DA:314,0
end_of_record
SF:/home/atcsol/git/Proyecto-Final-OBDH-UAHExplorer/uah_exp_freertos_project_2024/service_libraries/edroomsl/edroombp/include/public/edroombp.h
FN:192,_ZN12Pr_SemaphoreD2Ev
FNDA:0,_ZN12Pr_SemaphoreD2Ev
FN:337,_ZN15Pr_SemaphoreRecD2Ev
FNDA:0,_ZN15Pr_SemaphoreRecD2Ev
DA:192,0
DA:194,0
DA:195,0
DA:337,0
end_of_record
TN:
SF:/home/atcsol/git/Proyecto-Final-OBDH-UAHExplorer/uah_exp_freertos_project_2024/asw/dataclasses/CDEvAction/include/public/cdevaction.h
FN:29,_ZN10CDEvActionC2Ev
FNDA:0,_ZN10CDEvActionC2Ev
DA:29,0
DA:30,0
DA:31,0
DA:33,0
end_of_record
SF:/home/atcsol/git/Proyecto-Final-OBDH-UAHExplorer/uah_exp_freertos_project_2024/service_libraries/edroomsl/edroombp/include/public/edroombp.h
FN:192,_ZN12Pr_SemaphoreD2Ev
FNDA:0,_ZN12Pr_SemaphoreD2Ev
FN:261,_ZN15Pr_SemaphoreBinD2Ev
FNDA:0,_ZN15Pr_SemaphoreBinD2Ev
FN:337,_ZN15Pr_SemaphoreRecD2Ev
FNDA:0,_ZN15Pr_SemaphoreRecD2Ev
FN:533,_ZN7Pr_TaskD2Ev
FNDA:0,_ZN7Pr_TaskD2Ev
DA:192,0
DA:194,0
DA:195,0
DA:261,0
DA:264,0
DA:337,0
DA:533,0
DA:536,0
end_of_record
SF:/home/atcsol/git/Proyecto-Final-OBDH-UAHExplorer/uah_exp_freertos_project_2024/service_libraries/edroomsl/edroomsl/include/edroomsl/edroomsl.h
FN:115,_ZN11CEDROOMPoolD0Ev
FNDA:0,_ZN11CEDROOMPoolD0Ev
FN:115,_ZN11CEDROOMPoolD2Ev
FNDA:0,_ZN11CEDROOMPoolD2Ev
FN:236,_ZN17CEDROOMMemoryPoolD0Ev
FNDA:0,_ZN17CEDROOMMemoryPoolD0Ev
FN:236,_ZN17CEDROOMMemoryPoolD2Ev
FNDA:0,_ZN17CEDROOMMemoryPoolD2Ev
FN:314,_ZN26CEDROOMProtectedMemoryPoolD0Ev
FNDA:0,_ZN26CEDROOMProtectedMemoryPoolD0Ev
FN:314,_ZN26CEDROOMProtectedMemoryPoolD2Ev
FNDA:0,_ZN26CEDROOMProtectedMemoryPoolD2Ev
DA:115,0
DA:115,0
DA:236,0
DA:236,0
DA:314,0
DA:314,0
end_of_record
SF:/home/atcsol/git/Proyecto-Final-OBDH-UAHExplorer/uah_exp_freertos_project_2024/asw/components/ccexplorermanager/include/public/ccexplorermanager_iface_v1.h
FN:147,_ZN17CCExplorerManager26CEDROOMPOOLIRQ10CDEvActionC2Ev
FNDA:1,_ZN17CCExplorerManager26CEDROOMPOOLIRQ10CDEvActionC2Ev
FN:149,_ZN17CCExplorerManager26CEDROOMPOOLIRQ10CDEvAction9AllocDataEv
FNDA:0,_ZN17CCExplorerManager26CEDROOMPOOLIRQ10CDEvAction9AllocDataEv
FN:188,_ZN17CCExplorerManager27CEDROOMPOOLIRQ18CDTCHandlerC2Ev
FNDA:1,_ZN17CCExplorerManager27CEDROOMPOOLIRQ18CDTCHandlerC2Ev
FN:190,_ZN17CCExplorerManager27CEDROOMPOOLIRQ18CDTCHandler9AllocDataEv
FNDA:5,_ZN17CCExplorerManager27CEDROOMPOOLIRQ18CDTCHandler9AllocDataEv
DA:147,12
DA:149,0
DA:188,12
DA:190,5
end_of_record
SF:/home/atcsol/git/Proyecto-Final-OBDH-UAHExplorer/uah_exp_freertos_project_2024/asw/components/ccexplorermanager/src/CCExplorerManagerS.cpp
FN:25,_ZN17CCExplorerManager33EDROOMIRQ10HandlerTopHalfFunctionEv
FNDA:0,_ZN17CCExplorerManager33EDROOMIRQ10HandlerTopHalfFunctionEv
FN:37,_ZN17CCExplorerManager18EDROOMIRQ10HandlerEv
FNDA:0,_ZN17CCExplorerManager18EDROOMIRQ10HandlerEv
FN:47,_ZN17CCExplorerManager22EDROOMIRQ10IdleHandlerEv
FNDA:0,_ZN17CCExplorerManager22EDROOMIRQ10IdleHandlerEv
FN:55,_ZN17CCExplorerManager25EDROOMIRQ10BottomHalfTaskEv
FNDA:1,_ZN17CCExplorerManager25EDROOMIRQ10BottomHalfTaskEv
FN:132,_ZN17CCExplorerManager33EDROOMIRQ18HandlerTopHalfFunctionEv
FNDA:0,_ZN17CCExplorerManager33EDROOMIRQ18HandlerTopHalfFunctionEv
FN:154,_ZN17CCExplorerManager18EDROOMIRQ18HandlerEv
FNDA:0,_ZN17CCExplorerManager18EDROOMIRQ18HandlerEv
FN:164,_ZN17CCExplorerManager22EDROOMIRQ18IdleHandlerEv
FNDA:0,_ZN17CCExplorerManager22EDROOMIRQ18IdleHandlerEv
FN:172,_ZN17CCExplorerManager25EDROOMIRQ18BottomHalfTaskEv
FNDA:1,_ZN17CCExplorerManager25EDROOMIRQ18BottomHalfTaskEv
FN:233,_ZN17CCExplorerManagerC2Ejj15TEDROOMPriorityjPNS_13CEDROOMMemoryE
FNDA:1,_ZN17CCExplorerManagerC2Ejj15TEDROOMPriorityjPNS_13CEDROOMMemoryE
FN:269,_ZN17CCExplorerManager12EDROOMConfigEv
FNDA:0,_ZN17CCExplorerManager12EDROOMConfigEv
FN:280,_ZN17CCExplorerManager11EDROOMStartEv
FNDA:1,_ZN17CCExplorerManager11EDROOMStartEv
FN:301,_ZN17CCExplorerManager15EDROOMBehaviourEv
FNDA:1,_ZN17CCExplorerManager15EDROOMBehaviourEv
FN:338,_ZN17CCExplorerManager13CEDROOMMemory9SetMemoryEjP14CEDROOMMessagePbjPN12CEDROOMQueue10CQueueNodeES3_
FNDA:1,_ZN17CCExplorerManager13CEDROOMMemory9SetMemoryEjP14CEDROOMMessagePbjPN12CEDROOMQueue10CQueueNodeES3_
DA:25,0
DA:27,0
DA:28,0
DA:29,0
DA:31,0
DA:37,0
DA:39,0
DA:41,0
DA:47,0
DA:49,0
DA:55,1
DA:57,1
DA:62,1
DA:64,0
DA:66,0
DA:76,0
DA:84,0
DA:87,0
DA:89,0
DA:91,0
DA:94,0
DA:96,0
DA:98,0
DA:100,0
DA:132,0
DA:134,0
DA:145,0
DA:146,0
DA:148,0
DA:154,0
DA:156,0
DA:158,0
DA:164,0
DA:166,0
DA:172,1
DA:174,1
DA:179,6
DA:181,5
DA:183,5
DA:191,5
DA:197,5
DA:200,5
DA:202,5
DA:204,5
DA:207,5
DA:209,0
DA:211,5
DA:213,0
DA:233,1
DA:237,1
DA:244,1
DA:248,1
DA:252,2
DA:258,1
DA:269,0
DA:273,0
DA:280,1
DA:286,1
DA:288,1
DA:301,1
DA:304,1
DA:305,1
DA:310,0
DA:314,0
DA:315,0
DA:338,1
DA:346,1
DA:347,1
DA:350,1
end_of_record
TN:
SF:/home/atcsol/git/Proyecto-Final-OBDH-UAHExplorer/uah_exp_freertos_project_2024/asw/components/ccexplorermanager/src/CCExplorerManagerB.cpp
FN:13,_ZN17CCExplorerManager16EDROOM_CTX_Top_0C2ERS_R11CDEventListR11CDTCHandlerR8CDTMListRNS0_19CEDROOMPOOLCDTMListERNS0_22CEDROOMPOOLCDTCHandlerE
FNDA:1,_ZN17CCExplorerManager16EDROOM_CTX_Top_0C2ERS_R11CDEventListR11CDTCHandlerR8CDTMListRNS0_19CEDROOMPOOLCDTMListERNS0_22CEDROOMPOOLCDTCHandlerE
FN:37,_ZN17CCExplorerManager16EDROOM_CTX_Top_0C2ERS0_
FNDA:0,_ZN17CCExplorerManager16EDROOM_CTX_Top_0C2ERS0_
FN:59,_ZN17CCExplorerManager16EDROOM_CTX_Top_024EDROOMSearchContextTransER14TEDROOMTransId
FNDA:0,_ZN17CCExplorerManager16EDROOM_CTX_Top_024EDROOMSearchContextTransER14TEDROOMTransId
FN:83,_ZN17CCExplorerManager16EDROOM_CTX_Top_011FExecPrioTCEv
FNDA:1,_ZN17CCExplorerManager16EDROOM_CTX_Top_011FExecPrioTCEv
FN:93,_ZN17CCExplorerManager16EDROOM_CTX_Top_014FFwdGuidanceTCEv
FNDA:4,_ZN17CCExplorerManager16EDROOM_CTX_Top_014FFwdGuidanceTCEv
FN:105,_ZN17CCExplorerManager16EDROOM_CTX_Top_013FFwdHK_FDIRTCEv
FNDA:0,_ZN17CCExplorerManager16EDROOM_CTX_Top_013FFwdHK_FDIRTCEv
FN:120,_ZN17CCExplorerManager16EDROOM_CTX_Top_015FFwdToBKGTCExecEv
FNDA:0,_ZN17CCExplorerManager16EDROOM_CTX_Top_015FFwdToBKGTCExecEv
FN:135,_ZN17CCExplorerManager16EDROOM_CTX_Top_012FGetEvActionEv
FNDA:0,_ZN17CCExplorerManager16EDROOM_CTX_Top_012FGetEvActionEv
FN:151,_ZN17CCExplorerManager16EDROOM_CTX_Top_06FGetTCEv
FNDA:5,_ZN17CCExplorerManager16EDROOM_CTX_Top_06FGetTCEv
FN:167,_ZN17CCExplorerManager16EDROOM_CTX_Top_05FInitEv
FNDA:1,_ZN17CCExplorerManager16EDROOM_CTX_Top_05FInitEv
FN:182,_ZN17CCExplorerManager16EDROOM_CTX_Top_015FInvokeTxTMListEv
FNDA:6,_ZN17CCExplorerManager16EDROOM_CTX_Top_015FInvokeTxTMListEv
FN:198,_ZN17CCExplorerManager16EDROOM_CTX_Top_017FMngTCAcceptationEv
FNDA:5,_ZN17CCExplorerManager16EDROOM_CTX_Top_017FMngTCAcceptationEv
FN:209,_ZN17CCExplorerManager16EDROOM_CTX_Top_015FMngTCRejectionEv
FNDA:0,_ZN17CCExplorerManager16EDROOM_CTX_Top_015FMngTCRejectionEv
FN:222,_ZN17CCExplorerManager16EDROOM_CTX_Top_07FRebootEv
FNDA:1,_ZN17CCExplorerManager16EDROOM_CTX_Top_07FRebootEv
FN:232,_ZN17CCExplorerManager16EDROOM_CTX_Top_09GAcceptTCEv
FNDA:5,_ZN17CCExplorerManager16EDROOM_CTX_Top_09GAcceptTCEv
FN:242,_ZN17CCExplorerManager16EDROOM_CTX_Top_014GFwdGuidanceTCEv
FNDA:4,_ZN17CCExplorerManager16EDROOM_CTX_Top_014GFwdGuidanceTCEv
FN:252,_ZN17CCExplorerManager16EDROOM_CTX_Top_015GFwdToBKGTCExecEv
FNDA:4,_ZN17CCExplorerManager16EDROOM_CTX_Top_015GFwdToBKGTCExecEv
FN:262,_ZN17CCExplorerManager16EDROOM_CTX_Top_013GFwdToHK_FDIREv
FNDA:4,_ZN17CCExplorerManager16EDROOM_CTX_Top_013GFwdToHK_FDIREv
FN:272,_ZN17CCExplorerManager16EDROOM_CTX_Top_09GToRebootEv
FNDA:5,_ZN17CCExplorerManager16EDROOM_CTX_Top_09GToRebootEv
FN:286,_ZN17CCExplorerManager16EDROOM_CTX_Top_019CEDROOMPOOLCDTMListC2EjP8CDTMListPb
FNDA:1,_ZN17CCExplorerManager16EDROOM_CTX_Top_019CEDROOMPOOLCDTMListC2EjP8CDTMListPb
FN:293,_ZN17CCExplorerManager16EDROOM_CTX_Top_019CEDROOMPOOLCDTMList9AllocDataEv
FNDA:6,_ZN17CCExplorerManager16EDROOM_CTX_Top_019CEDROOMPOOLCDTMList9AllocDataEv
FN:300,_ZN17CCExplorerManager16EDROOM_CTX_Top_022CEDROOMPOOLCDTCHandlerC2EjP11CDTCHandlerPb
FNDA:1,_ZN17CCExplorerManager16EDROOM_CTX_Top_022CEDROOMPOOLCDTCHandlerC2EjP11CDTCHandlerPb
FN:307,_ZN17CCExplorerManager16EDROOM_CTX_Top_022CEDROOMPOOLCDTCHandler9AllocDataEv
FNDA:4,_ZN17CCExplorerManager16EDROOM_CTX_Top_022CEDROOMPOOLCDTCHandler9AllocDataEv
FN:324,_ZN17CCExplorerManager16EDROOM_SUB_Top_0C2ERS_PNS_13CEDROOMMemoryE
FNDA:1,_ZN17CCExplorerManager16EDROOM_SUB_Top_0C2ERS_PNS_13CEDROOMMemoryE
FN:344,_ZN17CCExplorerManager16EDROOM_SUB_Top_015EDROOMBehaviourEv
FNDA:1,_ZN17CCExplorerManager16EDROOM_SUB_Top_015EDROOMBehaviourEv
FN:528,_ZN17CCExplorerManager16EDROOM_SUB_Top_010EDROOMInitEv
FNDA:1,_ZN17CCExplorerManager16EDROOM_SUB_Top_010EDROOMInitEv
FN:545,_ZN17CCExplorerManager16EDROOM_SUB_Top_014EDROOMIArrivalEv
FNDA:1,_ZN17CCExplorerManager16EDROOM_SUB_Top_014EDROOMIArrivalEv
FN:567,_ZN17CCExplorerManager16EDROOM_SUB_Top_020EDROOMValidTCArrivalEv
FNDA:5,_ZN17CCExplorerManager16EDROOM_SUB_Top_020EDROOMValidTCArrivalEv
FN:589,_ZN17CCExplorerManager16EDROOM_SUB_Top_018EDROOMReadyArrivalEv
FNDA:5,_ZN17CCExplorerManager16EDROOM_SUB_Top_018EDROOMReadyArrivalEv
FN:650,_ZN17CCExplorerManager16EDROOM_SUB_Top_019EDROOMRebootArrivalEv
FNDA:0,_ZN17CCExplorerManager16EDROOM_SUB_Top_019EDROOMRebootArrivalEv
DA:13,1
DA:18,1
DA:20,1
DA:21,1
DA:22,1
DA:23,1
DA:24,1
DA:25,1
DA:26,1
DA:27,1
DA:28,1
DA:29,1
DA:30,1
DA:31,1
DA:32,1
DA:33,1
DA:35,1
DA:37,0
DA:39,0
DA:40,0
DA:41,0
DA:42,0
DA:43,0
DA:44,0
DA:45,0
DA:46,0
DA:47,0
DA:48,0
DA:49,0
DA:50,0
DA:51,0
DA:52,0
DA:55,0
DA:59,0
DA:63,0
DA:65,0
DA:68,0
DA:70,0
DA:71,0
DA:72,0
DA:73,0
DA:77,0
DA:83,1
DA:87,1
DA:89,1
DA:93,4
DA:97,4
DA:98,4
DA:100,4
DA:101,4
DA:105,0
DA:109,0
DA:113,0
DA:115,0
DA:116,0
DA:120,0
DA:124,0
DA:128,0
DA:130,0
DA:131,0
DA:135,0
DA:139,0
DA:142,0
DA:147,0
DA:151,5
DA:155,5
DA:159,5
DA:161,5
DA:163,5
DA:167,1
DA:171,1
DA:173,1
DA:174,1
DA:176,1
DA:178,1
DA:182,6
DA:186,6
DA:190,6
DA:191,6
DA:193,6
DA:194,6
DA:198,5
DA:203,5
DA:205,5
DA:209,0
DA:214,0
DA:216,0
DA:218,0
DA:222,1
DA:226,1
DA:228,0
DA:232,5
DA:236,5
DA:242,4
DA:246,4
DA:252,4
DA:256,4
DA:262,4
DA:266,4
DA:272,5
DA:276,5
DA:286,1
DA:287,1
DA:289,1
DA:291,1
DA:293,6
DA:295,6
DA:300,1
DA:301,1
DA:303,1
DA:305,1
DA:307,4
DA:309,4
DA:324,1
DA:325,1
DA:327,1
DA:328,1
DA:329,1
DA:330,1
DA:331,1
DA:332,1
DA:333,1
DA:334,1
DA:335,1
DA:336,1
DA:337,2
DA:340,1
DA:344,1
DA:351,1
DA:358,11
DA:362,1
DA:364,1
DA:366,1
DA:367,1
DA:369,5
DA:372,5
DA:374,5
DA:377,5
DA:379,5
DA:382,5
DA:386,5
DA:392,0
DA:394,0
DA:397,0
DA:401,0
DA:403,5
DA:405,0
DA:407,0
DA:409,0
DA:410,0
DA:412,5
DA:415,5
DA:418,1
DA:420,1
DA:423,1
DA:427,1
DA:430,4
DA:433,0
DA:436,0
DA:440,0
DA:443,4
DA:446,0
DA:449,0
DA:453,0
DA:456,4
DA:459,4
DA:462,4
DA:466,4
DA:472,0
DA:474,0
DA:477,0
DA:481,0
DA:483,5
DA:487,11
DA:491,0
DA:493,0
DA:494,0
DA:497,5
DA:499,5
DA:500,5
DA:503,1
DA:505,1
DA:507,0
DA:508,0
DA:511,5
DA:513,5
DA:514,5
DA:518,10
DA:520,10
DA:522,0
DA:528,1
DA:531,1
DA:533,1
DA:545,1
DA:551,1
DA:552,1
DA:553,1
DA:567,5
DA:573,5
DA:574,5
DA:575,5
DA:589,5
DA:594,5
DA:599,5
DA:601,5
DA:604,5
DA:606,5
DA:610,5
DA:611,5
DA:612,5
DA:615,0
DA:619,0
DA:620,0
DA:621,0
DA:624,5
DA:628,5
DA:630,0
DA:634,5
DA:636,5
DA:650,0
DA:655,0
DA:660,0
DA:662,0
DA:664,0
DA:668,0
DA:670,0
end_of_record
SF:/home/atcsol/git/Proyecto-Final-OBDH-UAHExplorer/uah_exp_freertos_project_2024/asw/dataclasses/CDEventList/include/public/cdeventlist.h
FN:70,_ZN11CDEventList14ClearEventListEv
FNDA:0,_ZN11CDEventList14ClearEventListEv
FN:88,_ZN11CDEventListC2Ev
FNDA:0,_ZN11CDEventListC2Ev
DA:70,0
DA:71,0
DA:72,0
DA:74,0
DA:88,0
DA:90,0
DA:91,0
end_of_record
SF:/home/atcsol/git/Proyecto-Final-OBDH-UAHExplorer/uah_exp_freertos_project_2024/asw/dataclasses/CDTMList/include/public/cdtmlist.h
FN:49,_ZN8CDTMList5ClearEv
FNDA:0,_ZN8CDTMList5ClearEv
DA:49,0
end_of_record
SF:/home/atcsol/git/Proyecto-Final-OBDH-UAHExplorer/uah_exp_freertos_project_2024/asw/components/ccexplorermanager/include/public/ccexplorermanager_iface_v1.h
FN:358,_ZN17CCExplorerManager16EDROOM_CTX_Top_016EDROOMNewMessageEv
FNDA:5,_ZN17CCExplorerManager16EDROOM_CTX_Top_016EDROOMNewMessageEv
DA:358,5
DA:359,5
end_of_record
SF:/home/atcsol/git/Proyecto-Final-OBDH-UAHExplorer/uah_exp_freertos_project_2024/service_libraries/edroomsl/edroomsl/include/edroomsl/edroomsl.h
FN:115,_ZN11CEDROOMPoolD0Ev
FNDA:0,_ZN11CEDROOMPoolD0Ev
FN:115,_ZN11CEDROOMPoolD2Ev
FNDA:0,_ZN11CEDROOMPoolD2Ev
FN:236,_ZN17CEDROOMMemoryPoolD0Ev
FNDA:0,_ZN17CEDROOMMemoryPoolD0Ev
FN:236,_ZN17CEDROOMMemoryPoolD2Ev
FNDA:0,_ZN17CEDROOMMemoryPoolD2Ev
FN:314,_ZN26CEDROOMProtectedMemoryPoolD0Ev
FNDA:0,_ZN26CEDROOMProtectedMemoryPoolD0Ev
FN:314,_ZN26CEDROOMProtectedMemoryPoolD2Ev
FNDA:0,_ZN26CEDROOMProtectedMemoryPoolD2Ev
DA:115,0
DA:115,0
DA:236,0
DA:236,0
DA:314,0
DA:314,0
end_of_record
SF:/home/atcsol/git/Proyecto-Final-OBDH-UAHExplorer/uah_exp_freertos_project_2024/asw/dataclasses/CDTCHandler/include/public/cdtchandler.h
FN:184,_ZN11CDTCHandler10IsAcceptedEv
FNDA:0,_ZN11CDTCHandler10IsAcceptedEv
FN:193,_ZN11CDTCHandler10IsRebootTCEv
FNDA:5,_ZN11CDTCHandler10IsRebootTCEv
FN:197,_ZN11CDTCHandler11IsHK_FDIRTCEv
FNDA:4,_ZN11CDTCHandler11IsHK_FDIRTCEv
FN:202,_ZN11CDTCHandler12IsGuidanceTCEv
FNDA:4,_ZN11CDTCHandler12IsGuidanceTCEv
FN:206,_ZN11CDTCHandler7IsBKGTCEv
FNDA:4,_ZN11CDTCHandler7IsBKGTCEv
DA:184,0
DA:185,0
DA:193,5
DA:194,5
DA:197,4
DA:198,4
DA:202,4
DA:203,4
DA:206,4
DA:207,4
end_of_record
SF:/home/atcsol/git/Proyecto-Final-OBDH-UAHExplorer/uah_exp_freertos_project_2024/service_libraries/edroomsl/edroombp/include/public/edroombp.h
FN:192,_ZN12Pr_SemaphoreD2Ev
FNDA:0,_ZN12Pr_SemaphoreD2Ev
FN:337,_ZN15Pr_SemaphoreRecD2Ev
FNDA:0,_ZN15Pr_SemaphoreRecD2Ev
DA:192,0
DA:194,0
DA:195,0
DA:337,0
end_of_record
TN:
SF:/home/atcsol/git/Proyecto-Final-OBDH-UAHExplorer/uah_exp_freertos_project_2024/asw/components/uahexplorer/include/public/uahexplorer_iface_v1.h
FN:220,_ZN11UAHExplorer16EDROOM_CTX_Top_016EDROOMNewMessageEv
FNDA:100,_ZN11UAHExplorer16EDROOM_CTX_Top_016EDROOMNewMessageEv
DA:220,100
DA:221,100
end_of_record
SF:/home/atcsol/git/Proyecto-Final-OBDH-UAHExplorer/uah_exp_freertos_project_2024/asw/components/uahexplorer/src/UAHExplorerB.cpp
FN:13,_ZN11UAHExplorer16EDROOM_CTX_Top_0C2ERS_R7Pr_Time
FNDA:1,_ZN11UAHExplorer16EDROOM_CTX_Top_0C2ERS_R7Pr_Time
FN:24,_ZN11UAHExplorer16EDROOM_CTX_Top_0C2ERS0_
FNDA:0,_ZN11UAHExplorer16EDROOM_CTX_Top_0C2ERS0_
FN:37,_ZN11UAHExplorer16EDROOM_CTX_Top_024EDROOMSearchContextTransER14TEDROOMTransId
FNDA:0,_ZN11UAHExplorer16EDROOM_CTX_Top_024EDROOMSearchContextTransER14TEDROOMTransId
FN:61,_ZN11UAHExplorer16EDROOM_CTX_Top_014FEmuRxTimeCodeEv
FNDA:100,_ZN11UAHExplorer16EDROOM_CTX_Top_014FEmuRxTimeCodeEv
FN:71,_ZN11UAHExplorer16EDROOM_CTX_Top_05FInitEv
FNDA:1,_ZN11UAHExplorer16EDROOM_CTX_Top_05FInitEv
FN:81,_ZN11UAHExplorer16EDROOM_CTX_Top_010FProgTimerEv
FNDA:101,_ZN11UAHExplorer16EDROOM_CTX_Top_010FProgTimerEv
FN:113,_ZN11UAHExplorer16EDROOM_SUB_Top_0C2ERS_
FNDA:1,_ZN11UAHExplorer16EDROOM_SUB_Top_0C2ERS_
FN:122,_ZN11UAHExplorer16EDROOM_SUB_Top_015EDROOMBehaviourEv
FNDA:1,_ZN11UAHExplorer16EDROOM_SUB_Top_015EDROOMBehaviourEv
FN:185,_ZN11UAHExplorer16EDROOM_SUB_Top_010EDROOMInitEv
FNDA:1,_ZN11UAHExplorer16EDROOM_SUB_Top_010EDROOMInitEv
FN:202,_ZN11UAHExplorer16EDROOM_SUB_Top_014EDROOMIArrivalEv
FNDA:1,_ZN11UAHExplorer16EDROOM_SUB_Top_014EDROOMIArrivalEv
FN:224,_ZN11UAHExplorer16EDROOM_SUB_Top_018EDROOMReadyArrivalEv
FNDA:100,_ZN11UAHExplorer16EDROOM_SUB_Top_018EDROOMReadyArrivalEv
DA:13,1
DA:14,1
DA:16,1
DA:17,1
DA:18,1
DA:19,1
DA:20,1
DA:22,1
DA:24,0
DA:26,0
DA:27,0
DA:28,0
DA:29,0
DA:30,0
DA:33,0
DA:37,0
DA:41,0
DA:43,0
DA:46,0
DA:48,0
DA:49,0
DA:50,0
DA:51,0
DA:55,0
DA:61,100
DA:65,100
DA:67,100
DA:71,1
DA:75,1
DA:77,1
DA:81,101
DA:85,101
DA:89,101
DA:92,101
DA:94,101
DA:95,100
DA:113,1
DA:115,1
DA:118,1
DA:122,1
DA:129,1
DA:136,101
DA:140,1
DA:142,1
DA:144,1
DA:145,1
DA:147,100
DA:149,100
DA:151,100
DA:152,100
DA:156,101
DA:160,0
DA:162,0
DA:163,0
DA:166,101
DA:168,101
DA:170,100
DA:171,100
DA:175,100
DA:177,100
DA:179,0
DA:185,1
DA:188,1
DA:190,1
DA:202,1
DA:208,1
DA:209,1
DA:210,1
DA:224,100
DA:229,100
DA:234,100
DA:236,100
DA:239,100
DA:241,100
DA:245,100
DA:246,100
DA:247,100
DA:250,100
DA:254,100
DA:256,0
DA:260,100
DA:262,100
end_of_record
TN:
SF:/home/atcsol/git/Proyecto-Final-OBDH-UAHExplorer/uah_exp_freertos_project_2024/asw/components/uahexplorer/src/UAHExplorerS.cpp
FN:13,_ZN11UAHExplorerC2Ejj15TEDROOMPriorityjPNS_13CEDROOMMemoryE
FNDA:1,_ZN11UAHExplorerC2Ejj15TEDROOMPriorityjPNS_13CEDROOMMemoryE
FN:49,_ZN11UAHExplorer12EDROOMConfigEv
FNDA:0,_ZN11UAHExplorer12EDROOMConfigEv
FN:60,_ZN11UAHExplorer11EDROOMStartEv
FNDA:1,_ZN11UAHExplorer11EDROOMStartEv
FN:85,_ZN11UAHExplorer15EDROOMBehaviourEv
FNDA:1,_ZN11UAHExplorer15EDROOMBehaviourEv
FN:114,_ZN11UAHExplorer13CEDROOMMemory9SetMemoryEjP14CEDROOMMessagePbjPN12CEDROOMQueue10CQueueNodeES3_
FNDA:1,_ZN11UAHExplorer13CEDROOMMemory9SetMemoryEjP14CEDROOMMessagePbjPN12CEDROOMQueue10CQueueNodeES3_
DA:13,1
DA:17,1
DA:24,1
DA:28,1
DA:32,2
DA:38,1
DA:49,0
DA:53,0
DA:60,1
DA:66,1
DA:70,1
DA:72,1
DA:85,1
DA:88,1
DA:89,1
DA:91,0
DA:114,1
DA:122,1
DA:123,1
DA:125,1
DA:128,1
end_of_record
SF:/home/atcsol/git/Proyecto-Final-OBDH-UAHExplorer/uah_exp_freertos_project_2024/service_libraries/edroomsl/edroomsl/include/edroomsl/edroomsl.h
end_of_record
SF:/home/atcsol/git/Proyecto-Final-OBDH-UAHExplorer/uah_exp_freertos_project_2024/asw/components/uahexplorer/include/public/uahexplorer_iface_v1.h
end_of_record
SF:/home/atcsol/git/Proyecto-Final-OBDH-UAHExplorer/uah_exp_freertos_project_2024/service_libraries/edroomsl/edroombp/include/public/edroombp.h
FN:192,_ZN12Pr_SemaphoreD2Ev
FNDA:0,_ZN12Pr_SemaphoreD2Ev
FN:261,_ZN15Pr_SemaphoreBinD2Ev
FNDA:0,_ZN15Pr_SemaphoreBinD2Ev
FN:337,_ZN15Pr_SemaphoreRecD2Ev
FNDA:0,_ZN15Pr_SemaphoreRecD2Ev
FN:533,_ZN7Pr_TaskD2Ev
FNDA:0,_ZN7Pr_TaskD2Ev
DA:192,0
DA:194,0
DA:195,0
DA:261,0
DA:264,0
DA:337,0
DA:533,0
DA:536,0
end_of_record
TN:
SF:/home/atcsol/git/Proyecto-Final-OBDH-UAHExplorer/uah_exp_freertos_project_2024/asw/components/cctm_channelctrl/src/CCTM_ChannelCtrlS.cpp
FN:13,_ZN16CCTM_ChannelCtrlC2Ejj15TEDROOMPriorityjPNS_13CEDROOMMemoryE
FNDA:1,_ZN16CCTM_ChannelCtrlC2Ejj15TEDROOMPriorityjPNS_13CEDROOMMemoryE
FN:41,_ZN16CCTM_ChannelCtrl12EDROOMConfigEv
FNDA:0,_ZN16CCTM_ChannelCtrl12EDROOMConfigEv
FN:52,_ZN16CCTM_ChannelCtrl11EDROOMStartEv
FNDA:1,_ZN16CCTM_ChannelCtrl11EDROOMStartEv
FN:73,_ZN16CCTM_ChannelCtrl15EDROOMBehaviourEv
FNDA:1,_ZN16CCTM_ChannelCtrl15EDROOMBehaviourEv
FN:102,_ZN16CCTM_ChannelCtrl13CEDROOMMemory9SetMemoryEjP14CEDROOMMessagePbjPN12CEDROOMQueue10CQueueNodeES3_
FNDA:1,_ZN16CCTM_ChannelCtrl13CEDROOMMemory9SetMemoryEjP14CEDROOMMessagePbjPN12CEDROOMQueue10CQueueNodeES3_
DA:13,1
DA:17,1
DA:24,1
DA:30,1
DA:41,0
DA:45,0
DA:52,1
DA:58,1
DA:60,1
DA:73,1
DA:76,1
DA:77,1
DA:79,0
DA:102,1
DA:110,1
DA:111,1
DA:114,1
end_of_record
SF:/home/atcsol/git/Proyecto-Final-OBDH-UAHExplorer/uah_exp_freertos_project_2024/asw/components/cctm_channelctrl/include/public/cctm_channelctrl_iface_v1.h
end_of_record
TN:
SF:/home/atcsol/git/Proyecto-Final-OBDH-UAHExplorer/uah_exp_freertos_project_2024/asw/components/cctm_channelctrl/src/CCTM_ChannelCtrlB.cpp
FN:13,_ZN16CCTM_ChannelCtrl16EDROOM_CTX_Top_0C2ERS_
FNDA:1,_ZN16CCTM_ChannelCtrl16EDROOM_CTX_Top_0C2ERS_
FN:25,_ZN16CCTM_ChannelCtrl16EDROOM_CTX_Top_0C2ERS0_
FNDA:0,_ZN16CCTM_ChannelCtrl16EDROOM_CTX_Top_0C2ERS0_
FN:40,_ZN16CCTM_ChannelCtrl16EDROOM_CTX_Top_024EDROOMSearchContextTransER14TEDROOMTransId
FNDA:0,_ZN16CCTM_ChannelCtrl16EDROOM_CTX_Top_024EDROOMSearchContextTransER14TEDROOMTransId
FN:64,_ZN16CCTM_ChannelCtrl16EDROOM_CTX_Top_014FReplyTMQueuedEv
FNDA:209,_ZN16CCTM_ChannelCtrl16EDROOM_CTX_Top_014FReplyTMQueuedEv
FN:74,_ZN16CCTM_ChannelCtrl16EDROOM_CTX_Top_09FTxTMListEv
FNDA:209,_ZN16CCTM_ChannelCtrl16EDROOM_CTX_Top_09FTxTMListEv
FN:102,_ZN16CCTM_ChannelCtrl16EDROOM_SUB_Top_0C2ERS_
FNDA:1,_ZN16CCTM_ChannelCtrl16EDROOM_SUB_Top_0C2ERS_
FN:110,_ZN16CCTM_ChannelCtrl16EDROOM_SUB_Top_015EDROOMBehaviourEv
FNDA:1,_ZN16CCTM_ChannelCtrl16EDROOM_SUB_Top_015EDROOMBehaviourEv
FN:171,_ZN16CCTM_ChannelCtrl16EDROOM_SUB_Top_010EDROOMInitEv
FNDA:1,_ZN16CCTM_ChannelCtrl16EDROOM_SUB_Top_010EDROOMInitEv
FN:188,_ZN16CCTM_ChannelCtrl16EDROOM_SUB_Top_014EDROOMIArrivalEv
FNDA:1,_ZN16CCTM_ChannelCtrl16EDROOM_SUB_Top_014EDROOMIArrivalEv
FN:210,_ZN16CCTM_ChannelCtrl16EDROOM_SUB_Top_018EDROOMReadyArrivalEv
FNDA:210,_ZN16CCTM_ChannelCtrl16EDROOM_SUB_Top_018EDROOMReadyArrivalEv
DA:13,1
DA:15,1
DA:16,1
DA:17,1
DA:18,1
DA:19,1
DA:20,1
DA:21,1
DA:23,1
DA:25,0
DA:27,0
DA:28,0
DA:29,0
DA:30,0
DA:31,0
DA:32,0
DA:33,0
DA:36,0
DA:40,0
DA:44,0
DA:46,0
DA:49,0
DA:51,0
DA:52,0
DA:53,0
DA:54,0
DA:58,0
DA:64,209
DA:69,209
DA:70,209
DA:74,209
DA:78,209
DA:82,209
DA:84,209
DA:102,1
DA:103,1
DA:106,1
DA:110,1
DA:117,1
DA:124,210
DA:128,1
DA:130,1
DA:131,1
DA:133,209
DA:135,209
DA:137,209
DA:139,209
DA:140,209
DA:144,210
DA:148,0
DA:150,0
DA:151,0
DA:154,210
DA:156,210
DA:157,209
DA:161,209
DA:163,209
DA:165,0
DA:171,1
DA:174,1
DA:176,1
DA:188,1
DA:194,1
DA:195,1
DA:196,1
DA:210,210
DA:215,210
DA:220,210
DA:222,209
DA:225,209
DA:229,209
DA:230,209
DA:231,209
DA:234,209
DA:238,209
DA:240,0
DA:244,209
DA:246,209
end_of_record
SF:/home/atcsol/git/Proyecto-Final-OBDH-UAHExplorer/uah_exp_freertos_project_2024/asw/components/cctm_channelctrl/include/public/cctm_channelctrl_iface_v1.h
FN:213,_ZN16CCTM_ChannelCtrl16EDROOM_CTX_Top_016EDROOMNewMessageEv
FNDA:210,_ZN16CCTM_ChannelCtrl16EDROOM_CTX_Top_016EDROOMNewMessageEv
DA:213,210
DA:214,210
end_of_record
TN:
SF:/home/atcsol/git/Proyecto-Final-OBDH-UAHExplorer/uah_exp_freertos_project_2024/llsw/emu_gss/src/emu_gss_pus_service20.cpp
FN:17,_ZN20EmuGSS_TCProgram20_1C2EjPKct
FNDA:0,_ZN20EmuGSS_TCProgram20_1C2EjPKct
FN:27,_ZN20EmuGSS_TCProgram20_114BuildTCAppDataER13tc_descriptor
FNDA:0,_ZN20EmuGSS_TCProgram20_114BuildTCAppDataER13tc_descriptor
FN:33,_ZN20EmuGSS_TCProgram20_3C2EjPKctt
FNDA:0,_ZN20EmuGSS_TCProgram20_3C2EjPKctt
FN:45,_ZN20EmuGSS_TCProgram20_314BuildTCAppDataER13tc_descriptor
FNDA:0,_ZN20EmuGSS_TCProgram20_314BuildTCAppDataER13tc_descriptor
FN:53,_Z19EmuGSS_ShowServ20TMPK13tm_descriptor
FNDA:0,_Z19EmuGSS_ShowServ20TMPK13tm_descriptor
FN:62,_ZN18GSSServ20TMHandlerC2EPKh
FNDA:0,_ZN18GSSServ20TMHandlerC2EPKh
FN:67,_ZN18GSSServ20TMHandler6ShowTMEv
FNDA:0,_ZN18GSSServ20TMHandler6ShowTMEv
FN:77,_ZN18GSSServ20TMHandler11ShowTM_20_2Ev
FNDA:0,_ZN18GSSServ20TMHandler11ShowTM_20_2Ev
DA:17,0
DA:19,0
DA:21,0
DA:23,0
DA:24,0
DA:25,0
DA:27,0
DA:29,0
DA:31,0
DA:33,0
DA:35,0
DA:37,0
DA:39,0
DA:40,0
DA:42,0
DA:43,0
DA:45,0
DA:47,0
DA:48,0
DA:50,0
DA:53,0
DA:55,0
DA:56,0
DA:58,0
DA:62,0
DA:63,0
DA:65,0
DA:67,0
DA:69,0
DA:70,0
DA:71,0
DA:72,0
DA:75,0
DA:77,0
DA:79,0
DA:80,0
DA:82,0
DA:85,0
end_of_record
TN:
SF:/home/atcsol/git/Proyecto-Final-OBDH-UAHExplorer/uah_exp_freertos_project_2024/llsw/emu_gss/src/emu_gss_tc_program.cpp
FN:19,_ZN16EmuGSS_TCProgram21GetCurrentTCProgramedEv
FNDA:5,_ZN16EmuGSS_TCProgram21GetCurrentTCProgramedEv
FN:25,_ZN16EmuGSS_TCProgramC2EjhhtPKc
FNDA:5,_ZN16EmuGSS_TCProgramC2EjhhtPKc
FN:36,_ZN16EmuGSS_TCProgram21SetCurrentTCProgramedEj
FNDA:105,_ZN16EmuGSS_TCProgram21SetCurrentTCProgramedEj
FN:48,_ZN16EmuGSS_TCProgram10NewProgramEPS_
FNDA:5,_ZN16EmuGSS_TCProgram10NewProgramEPS_
FN:82,_ZN16EmuGSS_TCProgram7BuildTCER13tc_descriptor
FNDA:5,_ZN16EmuGSS_TCProgram7BuildTCER13tc_descriptor
FN:99,_ZN16EmuGSS_TCProgram17BuildTCPackHeaderER13tc_descriptor
FNDA:5,_ZN16EmuGSS_TCProgram17BuildTCPackHeaderER13tc_descriptor
FN:122,_ZN16EmuGSS_TCProgram15BuildTCDFHeaderER13tc_descriptor
FNDA:5,_ZN16EmuGSS_TCProgram15BuildTCDFHeaderER13tc_descriptor
FN:132,_ZN16EmuGSS_TCProgram12SetNextUInt8ERh
FNDA:0,_ZN16EmuGSS_TCProgram12SetNextUInt8ERh
FN:137,_ZN16EmuGSS_TCProgram13SetNextUInt16ERt
FNDA:0,_ZN16EmuGSS_TCProgram13SetNextUInt16ERt
FN:142,_ZN16EmuGSS_TCProgram13SetNextUInt32ERj
FNDA:0,_ZN16EmuGSS_TCProgram13SetNextUInt32ERj
FN:146,_ZN16EmuGSS_TCProgram13SetNextUInt64ERm
FNDA:0,_ZN16EmuGSS_TCProgram13SetNextUInt64ERm
FN:151,_ZN16EmuGSS_TCProgram11SetNextInt8ERa
FNDA:0,_ZN16EmuGSS_TCProgram11SetNextInt8ERa
FN:155,_ZN16EmuGSS_TCProgram12SetNextInt16ERs
FNDA:0,_ZN16EmuGSS_TCProgram12SetNextInt16ERs
FN:160,_ZN16EmuGSS_TCProgram12SetNextInt32ERi
FNDA:0,_ZN16EmuGSS_TCProgram12SetNextInt32ERi
FN:164,_ZN16EmuGSS_TCProgram12SetNextInt64ERl
FNDA:0,_ZN16EmuGSS_TCProgram12SetNextInt64ERl
FN:168,_ZN16EmuGSS_TCProgram12SetNextFloatERf
FNDA:8,_ZN16EmuGSS_TCProgram12SetNextFloatERf
DA:19,5
DA:21,5
DA:25,5
DA:26,5
DA:28,5
DA:29,5
DA:30,5
DA:31,5
DA:32,5
DA:33,5
DA:34,5
DA:36,105
DA:37,105
DA:38,105
DA:39,104
DA:40,5
DA:41,5
DA:42,5
DA:45,105
DA:48,5
DA:49,5
DA:51,5
DA:52,1
DA:53,1
DA:55,4
DA:57,4
DA:58,4
DA:59,14
DA:60,10
DA:61,0
DA:62,0
DA:64,0
DA:66,0
DA:67,0
DA:69,10
DA:70,10
DA:71,10
DA:72,4
DA:73,4
DA:74,4
DA:80,5
DA:82,5
DA:84,5
DA:86,5
DA:87,5
DA:88,5
DA:89,5
DA:91,5
DA:92,5
DA:93,5
DA:95,5
DA:98,5
DA:99,5
DA:101,5
DA:102,5
DA:104,5
DA:107,5
DA:109,5
DA:111,5
DA:114,5
DA:117,5
DA:121,5
DA:122,5
DA:124,5
DA:125,5
DA:126,5
DA:127,5
DA:128,5
DA:130,5
DA:132,0
DA:133,0
DA:134,0
DA:135,0
DA:137,0
DA:138,0
DA:139,0
DA:140,0
DA:142,0
DA:143,0
DA:144,0
DA:145,0
DA:146,0
DA:147,0
DA:148,0
DA:149,0
DA:151,0
DA:152,0
DA:153,0
DA:154,0
DA:155,0
DA:156,0
DA:157,0
DA:158,0
DA:160,0
DA:161,0
DA:162,0
DA:163,0
DA:164,0
DA:165,0
DA:166,0
DA:167,0
DA:168,8
DA:170,8
DA:171,8
DA:172,8
DA:173,8
end_of_record
TN:
SF:/home/atcsol/git/Proyecto-Final-OBDH-UAHExplorer/uah_exp_freertos_project_2024/llsw/emu_gss/src/emu_gss_tm_handler.cpp
FN:17,_ZN12GSSTMHandler10GetPUSTypeEPK13tm_descriptor
FNDA:78,_ZN12GSSTMHandler10GetPUSTypeEPK13tm_descriptor
FN:27,_ZN12GSSTMHandler13GetPUSSubtypeEPK13tm_descriptor
FNDA:78,_ZN12GSSTMHandler13GetPUSSubtypeEPK13tm_descriptor
FN:38,_ZN12GSSTMHandlerC2EPKh
FNDA:78,_ZN12GSSTMHandlerC2EPKh
FN:53,_ZN12GSSTMHandler24GetNextUInt8AppDataFieldEv
FNDA:0,_ZN12GSSTMHandler24GetNextUInt8AppDataFieldEv
FN:61,_ZN12GSSTMHandler25GetNextUInt16AppDataFieldEv
FNDA:409,_ZN12GSSTMHandler25GetNextUInt16AppDataFieldEv
FN:69,_ZN12GSSTMHandler25GetNextUInt32AppDataFieldEv
FNDA:0,_ZN12GSSTMHandler25GetNextUInt32AppDataFieldEv
FN:78,_ZN12GSSTMHandler25GetNextUInt64AppDataFieldEv
FNDA:0,_ZN12GSSTMHandler25GetNextUInt64AppDataFieldEv
FN:87,_ZN12GSSTMHandler23GetNextInt8AppDataFieldEv
FNDA:0,_ZN12GSSTMHandler23GetNextInt8AppDataFieldEv
FN:95,_ZN12GSSTMHandler24GetNextInt16AppDataFieldEv
FNDA:0,_ZN12GSSTMHandler24GetNextInt16AppDataFieldEv
FN:104,_ZN12GSSTMHandler24GetNextInt32AppDataFieldEv
FNDA:0,_ZN12GSSTMHandler24GetNextInt32AppDataFieldEv
FN:113,_ZN12GSSTMHandler24GetNextInt64AppDataFieldEv
FNDA:0,_ZN12GSSTMHandler24GetNextInt64AppDataFieldEv
DA:17,78
DA:19,78
DA:20,78
DA:21,78
DA:23,78
DA:27,78
DA:30,78
DA:31,78
DA:32,78
DA:34,78
DA:38,78
DA:40,78
DA:41,78
DA:42,78
DA:44,78
DA:45,78
DA:46,78
DA:47,78
DA:49,78
DA:51,78
DA:53,0
DA:56,0
DA:57,0
DA:58,0
DA:61,409
DA:64,409
DA:65,409
DA:66,409
DA:69,0
DA:72,0
DA:73,0
DA:74,0
DA:78,0
DA:81,0
DA:82,0
DA:83,0
DA:87,0
DA:89,0
DA:90,0
DA:91,0
DA:95,0
DA:98,0
DA:99,0
DA:100,0
DA:104,0
DA:107,0
DA:108,0
DA:109,0
DA:113,0
DA:116,0
DA:117,0
DA:118,0
end_of_record
TN:
SF:/home/atcsol/git/Proyecto-Final-OBDH-UAHExplorer/uah_exp_freertos_project_2024/llsw/emu_gss/src/emu_gss_pus_service3.cpp
FN:19,_ZN19EmuGSS_TCProgram3_5C2EjPKct
FNDA:0,_ZN19EmuGSS_TCProgram3_5C2EjPKct
FN:29,_ZN19EmuGSS_TCProgram3_514BuildTCAppDataER13tc_descriptor
FNDA:0,_ZN19EmuGSS_TCProgram3_514BuildTCAppDataER13tc_descriptor
FN:36,_ZN19EmuGSS_TCProgram3_6C2EjPKct
FNDA:0,_ZN19EmuGSS_TCProgram3_6C2EjPKct
FN:46,_ZN19EmuGSS_TCProgram3_614BuildTCAppDataER13tc_descriptor
FNDA:0,_ZN19EmuGSS_TCProgram3_614BuildTCAppDataER13tc_descriptor
FN:52,_ZN20EmuGSS_TCProgram3_31C2EjPKcth
FNDA:0,_ZN20EmuGSS_TCProgram3_31C2EjPKcth
FN:64,_ZN20EmuGSS_TCProgram3_3114BuildTCAppDataER13tc_descriptor
FNDA:0,_ZN20EmuGSS_TCProgram3_3114BuildTCAppDataER13tc_descriptor
FN:73,_Z18EmuGSS_ShowServ3TMPK13tm_descriptor
FNDA:68,_Z18EmuGSS_ShowServ3TMPK13tm_descriptor
FN:82,_ZN17GSSServ3TMHandlerC2EPKh
FNDA:68,_ZN17GSSServ3TMHandlerC2EPKh
FN:87,_ZN17GSSServ3TMHandler6ShowTMEv
FNDA:68,_ZN17GSSServ3TMHandler6ShowTMEv
FN:99,_ZN17GSSServ3TMHandler11ShowTM_3_25Ev
FNDA:68,_ZN17GSSServ3TMHandler11ShowTM_3_25Ev
FN:143,_ZN17GSSServ3TMHandler16ShowTM_3_25_SID0Ev
FNDA:49,_ZN17GSSServ3TMHandler16ShowTM_3_25_SID0Ev
FN:163,_ZN17GSSServ3TMHandler17ShowTM_3_25_SID10Ev
FNDA:19,_ZN17GSSServ3TMHandler17ShowTM_3_25_SID10Ev
DA:19,0
DA:21,0
DA:23,0
DA:25,0
DA:26,0
DA:27,0
DA:29,0
DA:31,0
DA:33,0
DA:36,0
DA:38,0
DA:40,0
DA:42,0
DA:43,0
DA:44,0
DA:46,0
DA:48,0
DA:50,0
DA:52,0
DA:54,0
DA:56,0
DA:58,0
DA:59,0
DA:61,0
DA:62,0
DA:64,0
DA:66,0
DA:67,0
DA:70,0
DA:73,68
DA:75,68
DA:76,68
DA:78,68
DA:82,68
DA:83,68
DA:85,68
DA:87,68
DA:89,68
DA:90,68
DA:91,68
DA:92,68
DA:95,68
DA:99,68
DA:101,68
DA:103,68
DA:105,68
DA:107,49
DA:109,19
DA:111,19
DA:115,0
DA:117,0
DA:119,0
DA:121,0
DA:122,0
DA:123,0
DA:124,0
DA:125,0
DA:127,0
DA:130,0
DA:133,0
DA:137,68
DA:143,49
DA:145,294
DA:147,245
DA:148,245
DA:150,245
DA:151,49
DA:152,196
DA:153,49
DA:155,147
DA:157,49
DA:163,19
DA:165,95
DA:167,76
DA:168,76
DA:170,76
DA:171,19
DA:172,57
DA:173,19
DA:175,38
DA:177,19
end_of_record
TN:
SF:/home/atcsol/git/Proyecto-Final-OBDH-UAHExplorer/uah_exp_freertos_project_2024/llsw/emu_gss/include/emu_gss/emu_gss_tc_program.h
FN:46,_ZN16EmuGSS_TCProgram7GetTypeEv
FNDA:5,_ZN16EmuGSS_TCProgram7GetTypeEv
FN:47,_ZN16EmuGSS_TCProgram10GetSubtypeEv
FNDA:5,_ZN16EmuGSS_TCProgram10GetSubtypeEv
FN:48,_ZN16EmuGSS_TCProgram8GetBriefEv
FNDA:5,_ZN16EmuGSS_TCProgram8GetBriefEv
DA:46,5
DA:47,5
DA:48,5
end_of_record
SF:/home/atcsol/git/Proyecto-Final-OBDH-UAHExplorer/uah_exp_freertos_project_2024/llsw/emu_gss/src/emu_gss.cpp
FN:20,_Z13EmuGSS_ShowTMPK13tm_descriptor
FNDA:78,_Z13EmuGSS_ShowTMPK13tm_descriptor
FN:55,_Z17EmuGSS_PassSecondv
FNDA:100,_Z17EmuGSS_PassSecondv
FN:65,_Z24EmuGSS_SendProgrammedTCsv
FNDA:100,_Z24EmuGSS_SendProgrammedTCsv
DA:20,78
DA:23,78
DA:24,78
DA:26,78
DA:28,78
DA:30,10
DA:32,10
DA:34,10
DA:36,68
DA:37,68
DA:38,68
DA:40,0
DA:41,0
DA:42,0
DA:43,0
DA:44,0
DA:45,0
DA:46,0
DA:47,0
DA:48,0
DA:51,78
DA:53,78
DA:55,100
DA:59,100
DA:61,100
DA:63,100
DA:65,100
DA:67,100
DA:69,100
DA:70,105
DA:72,5
DA:73,5
DA:74,5
DA:76,5
DA:77,5
DA:82,5
DA:84,5
DA:86,5
DA:88,5
DA:90,5
DA:95,100
DA:97,5
DA:101,100
end_of_record
TN:
SF:/home/atcsol/git/Proyecto-Final-OBDH-UAHExplorer/uah_exp_freertos_project_2024/llsw/emu_gss/src/emu_gss_pus_service2.cpp
FN:17,_ZN19EmuGSS_TCProgram2_1C2EjPKch20DeviceCommandOnOff_t
FNDA:0,_ZN19EmuGSS_TCProgram2_1C2EjPKch20DeviceCommandOnOff_t
FN:30,_ZN19EmuGSS_TCProgram2_1C2Eh20DeviceCommandOnOff_t
FNDA:0,_ZN19EmuGSS_TCProgram2_1C2Eh20DeviceCommandOnOff_t
FN:42,_ZN19EmuGSS_TCProgram2_114BuildTCAppDataER13tc_descriptor
FNDA:0,_ZN19EmuGSS_TCProgram2_114BuildTCAppDataER13tc_descriptor
DA:17,0
DA:20,0
DA:22,0
DA:24,0
DA:26,0
DA:27,0
DA:30,0
DA:32,0
DA:34,0
DA:36,0
DA:40,0
DA:42,0
DA:44,0
DA:46,0
end_of_record
TN:
SF:/home/atcsol/git/Proyecto-Final-OBDH-UAHExplorer/uah_exp_freertos_project_2024/llsw/emu_gss/src/emu_gss_pus_service12.cpp
FN:19,_ZN20EmuGSS_TCProgram12_1C2EjPKct
FNDA:0,_ZN20EmuGSS_TCProgram12_1C2EjPKct
FN:28,_ZN20EmuGSS_TCProgram12_114BuildTCAppDataER13tc_descriptor
FNDA:0,_ZN20EmuGSS_TCProgram12_114BuildTCAppDataER13tc_descriptor
FN:34,_ZN20EmuGSS_TCProgram12_2C2EjPKct
FNDA:0,_ZN20EmuGSS_TCProgram12_2C2EjPKct
FN:43,_ZN20EmuGSS_TCProgram12_214BuildTCAppDataER13tc_descriptor
FNDA:0,_ZN20EmuGSS_TCProgram12_214BuildTCAppDataER13tc_descriptor
FN:49,_ZN20EmuGSS_TCProgram12_5C2EjPKctthtttt
FNDA:0,_ZN20EmuGSS_TCProgram12_5C2EjPKctthtttt
FN:65,_ZN20EmuGSS_TCProgram12_514BuildTCAppDataER13tc_descriptor
FNDA:0,_ZN20EmuGSS_TCProgram12_514BuildTCAppDataER13tc_descriptor
FN:77,_ZN20EmuGSS_TCProgram12_6C2EjPKct
FNDA:0,_ZN20EmuGSS_TCProgram12_6C2EjPKct
FN:86,_ZN20EmuGSS_TCProgram12_614BuildTCAppDataER13tc_descriptor
FNDA:0,_ZN20EmuGSS_TCProgram12_614BuildTCAppDataER13tc_descriptor
FN:93,_Z19EmuGSS_ShowServ12TMPK13tm_descriptor
FNDA:0,_Z19EmuGSS_ShowServ12TMPK13tm_descriptor
FN:100,_ZN18GSSServ12TMHandlerC2EPKh
FNDA:0,_ZN18GSSServ12TMHandlerC2EPKh
FN:105,_ZN18GSSServ12TMHandler6ShowTMEv
FNDA:0,_ZN18GSSServ12TMHandler6ShowTMEv
DA:19,0
DA:20,0
DA:22,0
DA:24,0
DA:25,0
DA:26,0
DA:28,0
DA:30,0
DA:32,0
DA:34,0
DA:35,0
DA:37,0
DA:39,0
DA:40,0
DA:41,0
DA:43,0
DA:45,0
DA:47,0
DA:49,0
DA:51,0
DA:53,0
DA:55,0
DA:56,0
DA:57,0
DA:58,0
DA:59,0
DA:60,0
DA:61,0
DA:62,0
DA:63,0
DA:65,0
DA:67,0
DA:68,0
DA:69,0
DA:70,0
DA:71,0
DA:72,0
DA:73,0
DA:75,0
DA:77,0
DA:78,0
DA:80,0
DA:82,0
DA:83,0
DA:84,0
DA:86,0
DA:88,0
DA:90,0
DA:93,0
DA:95,0
DA:96,0
DA:98,0
DA:100,0
DA:101,0
DA:103,0
DA:105,0
DA:107,0
end_of_record
TN:
SF:/home/atcsol/git/Proyecto-Final-OBDH-UAHExplorer/uah_exp_freertos_project_2024/llsw/emu_gss/src/emu_gss_pus_service1.cpp
FN:31,_Z18EmuGSS_ShowServ1TMPK13tm_descriptor
FNDA:10,_Z18EmuGSS_ShowServ1TMPK13tm_descriptor
FN:38,_ZN17GSSServ1TMHandlerC2EPKh
FNDA:10,_ZN17GSSServ1TMHandlerC2EPKh
FN:43,_ZN17GSSServ1TMHandler6ShowTMEv
FNDA:10,_ZN17GSSServ1TMHandler6ShowTMEv
FN:59,_ZN17GSSServ1TMHandler10ShowTM_1_2Ev
FNDA:0,_ZN17GSSServ1TMHandler10ShowTM_1_2Ev
FN:94,_ZN17GSSServ1TMHandler10ShowTM_1_8Ev
FNDA:0,_ZN17GSSServ1TMHandler10ShowTM_1_8Ev
DA:31,10
DA:33,10
DA:34,10
DA:36,10
DA:38,10
DA:39,10
DA:41,10
DA:43,10
DA:46,10
DA:48,10
DA:50,10
DA:51,0
DA:52,0
DA:53,0
DA:54,0
DA:55,0
DA:56,0
DA:58,10
DA:59,0
DA:61,0
DA:62,0
DA:63,0
DA:65,0
DA:66,0
DA:68,0
DA:70,0
DA:71,0
DA:73,0
DA:75,0
DA:76,0
DA:78,0
DA:80,0
DA:82,0
DA:84,0
DA:86,0
DA:88,0
DA:92,0
DA:94,0
DA:96,0
DA:97,0
DA:98,0
DA:100,0
DA:101,0
DA:103,0
DA:105,0
DA:106,0
DA:108,0
DA:110,0
DA:111,0
DA:113,0
DA:115,0
DA:117,0
DA:119,0
DA:121,0
DA:123,0
DA:125,0
DA:127,0
DA:129,0
DA:130,0
DA:132,0
DA:134,0
DA:135,0
DA:137,0
DA:139,0
DA:141,0
DA:143,0
DA:145,0
DA:147,0
DA:149,0
DA:151,0
DA:153,0
DA:155,0
DA:157,0
DA:160,0
end_of_record
TN:
SF:/home/atcsol/git/Proyecto-Final-OBDH-UAHExplorer/uah_exp_freertos_project_2024/llsw/emu_gss/src/emu_gss_pus_service19.cpp
FN:27,_ZN31EmuGSS_TCProgram19_1_Action_2_1C2EjPKcth20DeviceCommandOnOff_t
FNDA:0,_ZN31EmuGSS_TCProgram19_1_Action_2_1C2EjPKcth20DeviceCommandOnOff_t
FN:38,_ZN31EmuGSS_TCProgram19_1_Action_2_114BuildTCAppDataER13tc_descriptor
FNDA:0,_ZN31EmuGSS_TCProgram19_1_Action_2_114BuildTCAppDataER13tc_descriptor
FN:53,_ZN33EmuGSS_TCProgram19_1_Action_128_1C2EjPKct
FNDA:0,_ZN33EmuGSS_TCProgram19_1_Action_128_1C2EjPKct
FN:62,_ZN33EmuGSS_TCProgram19_1_Action_128_114BuildTCAppDataER13tc_descriptor
FNDA:0,_ZN33EmuGSS_TCProgram19_1_Action_128_114BuildTCAppDataER13tc_descriptor
FN:77,_ZN20EmuGSS_TCProgram19_2C2EjPKct
FNDA:0,_ZN20EmuGSS_TCProgram19_2C2EjPKct
FN:86,_ZN20EmuGSS_TCProgram19_214BuildTCAppDataER13tc_descriptor
FNDA:0,_ZN20EmuGSS_TCProgram19_214BuildTCAppDataER13tc_descriptor
FN:92,_ZN20EmuGSS_TCProgram19_4C2EjPKct
FNDA:0,_ZN20EmuGSS_TCProgram19_4C2EjPKct
FN:101,_ZN20EmuGSS_TCProgram19_414BuildTCAppDataER13tc_descriptor
FNDA:0,_ZN20EmuGSS_TCProgram19_414BuildTCAppDataER13tc_descriptor
FN:107,_ZN20EmuGSS_TCProgram19_5C2EjPKct
FNDA:0,_ZN20EmuGSS_TCProgram19_5C2EjPKct
FN:116,_ZN20EmuGSS_TCProgram19_514BuildTCAppDataER13tc_descriptor
FNDA:0,_ZN20EmuGSS_TCProgram19_514BuildTCAppDataER13tc_descriptor
FN:123,_Z19EmuGSS_ShowServ19TMPK13tm_descriptor
FNDA:0,_Z19EmuGSS_ShowServ19TMPK13tm_descriptor
FN:130,_ZN18GSSServ19TMHandlerC2EPKh
FNDA:0,_ZN18GSSServ19TMHandlerC2EPKh
FN:135,_ZN18GSSServ19TMHandler6ShowTMEv
FNDA:0,_ZN18GSSServ19TMHandler6ShowTMEv
DA:27,0
DA:29,0
DA:31,0
DA:32,0
DA:34,0
DA:35,0
DA:36,0
DA:38,0
DA:43,0
DA:45,0
DA:47,0
DA:48,0
DA:49,0
DA:51,0
DA:53,0
DA:54,0
DA:56,0
DA:57,0
DA:58,0
DA:60,0
DA:62,0
DA:67,0
DA:69,0
DA:71,0
DA:73,0
DA:74,0
DA:76,0
DA:77,0
DA:78,0
DA:80,0
DA:82,0
DA:83,0
DA:84,0
DA:86,0
DA:88,0
DA:90,0
DA:92,0
DA:93,0
DA:95,0
DA:97,0
DA:98,0
DA:99,0
DA:101,0
DA:103,0
DA:105,0
DA:107,0
DA:108,0
DA:110,0
DA:112,0
DA:113,0
DA:114,0
DA:116,0
DA:118,0
DA:120,0
DA:123,0
DA:125,0
DA:126,0
DA:128,0
DA:130,0
DA:131,0
DA:133,0
DA:135,0
DA:137,0
end_of_record
TN:
SF:/home/atcsol/git/Proyecto-Final-OBDH-UAHExplorer/uah_exp_freertos_project_2024/llsw/emu_gss/src/emu_gss_pus_service17.cpp
FN:13,_ZN20EmuGSS_TCProgram17_1C2EjPKc
FNDA:0,_ZN20EmuGSS_TCProgram17_1C2EjPKc
FN:20,_ZN20EmuGSS_TCProgram17_114BuildTCAppDataER13tc_descriptor
FNDA:0,_ZN20EmuGSS_TCProgram17_114BuildTCAppDataER13tc_descriptor
FN:27,_ZN20EmuGSS_TCProgram17_3C2EjPKct
FNDA:0,_ZN20EmuGSS_TCProgram17_3C2EjPKct
FN:35,_ZN20EmuGSS_TCProgram17_314BuildTCAppDataER13tc_descriptor
FNDA:0,_ZN20EmuGSS_TCProgram17_314BuildTCAppDataER13tc_descriptor
DA:13,0
DA:14,0
DA:15,0
DA:17,0
DA:18,0
DA:20,0
DA:23,0
DA:27,0
DA:28,0
DA:29,0
DA:31,0
DA:32,0
DA:33,0
DA:35,0
DA:38,0
end_of_record
TN:
SF:/home/atcsol/git/Proyecto-Final-OBDH-UAHExplorer/uah_exp_freertos_project_2024/llsw/emu_gss/src/emu_gss_pus_service5.cpp
FN:18,_ZN19EmuGSS_TCProgram5_5C2EjPKct
FNDA:0,_ZN19EmuGSS_TCProgram5_5C2EjPKct
FN:28,_ZN19EmuGSS_TCProgram5_514BuildTCAppDataER13tc_descriptor
FNDA:0,_ZN19EmuGSS_TCProgram5_514BuildTCAppDataER13tc_descriptor
FN:35,_ZN19EmuGSS_TCProgram5_6C2EjPKct
FNDA:0,_ZN19EmuGSS_TCProgram5_6C2EjPKct
FN:45,_ZN19EmuGSS_TCProgram5_614BuildTCAppDataER13tc_descriptor
FNDA:0,_ZN19EmuGSS_TCProgram5_614BuildTCAppDataER13tc_descriptor
FN:54,_Z18EmuGSS_ShowServ5TMPK13tm_descriptor
FNDA:0,_Z18EmuGSS_ShowServ5TMPK13tm_descriptor
FN:63,_ZN17GSSServ5TMHandlerC2EPKh
FNDA:0,_ZN17GSSServ5TMHandlerC2EPKh
FN:68,_ZN17GSSServ5TMHandler6ShowTMEv
FNDA:0,_ZN17GSSServ5TMHandler6ShowTMEv
FN:87,_ZN17GSSServ5TMHandler10ShowTM_5_1Ev
FNDA:0,_ZN17GSSServ5TMHandler10ShowTM_5_1Ev
FN:95,_ZN17GSSServ5TMHandler10ShowTM_5_2Ev
FNDA:0,_ZN17GSSServ5TMHandler10ShowTM_5_2Ev
FN:103,_ZN17GSSServ5TMHandler10ShowTM_5_3Ev
FNDA:0,_ZN17GSSServ5TMHandler10ShowTM_5_3Ev
FN:111,_ZN17GSSServ5TMHandler10ShowTM_5_4Ev
FNDA:0,_ZN17GSSServ5TMHandler10ShowTM_5_4Ev
DA:18,0
DA:20,0
DA:22,0
DA:24,0
DA:25,0
DA:26,0
DA:28,0
DA:30,0
DA:32,0
DA:35,0
DA:37,0
DA:39,0
DA:41,0
DA:42,0
DA:43,0
DA:45,0
DA:47,0
DA:49,0
DA:54,0
DA:56,0
DA:57,0
DA:59,0
DA:63,0
DA:64,0
DA:66,0
DA:68,0
DA:70,0
DA:71,0
DA:72,0
DA:73,0
DA:74,0
DA:75,0
DA:76,0
DA:77,0
DA:78,0
DA:79,0
DA:80,0
DA:81,0
DA:82,0
DA:85,0
DA:87,0
DA:89,0
DA:91,0
DA:93,0
DA:95,0
DA:97,0
DA:99,0
DA:101,0
DA:103,0
DA:105,0
DA:107,0
DA:109,0
DA:111,0
DA:113,0
DA:115,0
DA:117,0
DA:118,0
DA:119,0
DA:120,0
DA:121,0
DA:123,0
DA:124,0
DA:126,0
DA:128,0
DA:129,0
DA:130,0
DA:131,0
DA:133,0
DA:134,0
DA:136,0
DA:139,0
DA:140,0
end_of_record
TN:
SF:/home/atcsol/git/Proyecto-Final-OBDH-UAHExplorer/uah_exp_freertos_project_2024/llsw/emu_gss/src/emu_gss_pus_service128.cpp
FN:15,_ZN21EmuGSS_TCProgram128_1C2EjPKc
FNDA:1,_ZN21EmuGSS_TCProgram128_1C2EjPKc
FN:24,_ZN21EmuGSS_TCProgram128_1C2Ev
FNDA:0,_ZN21EmuGSS_TCProgram128_1C2Ev
FN:31,_ZN21EmuGSS_TCProgram128_114BuildTCAppDataER13tc_descriptor
FNDA:1,_ZN21EmuGSS_TCProgram128_114BuildTCAppDataER13tc_descriptor
DA:15,1
DA:16,1
DA:18,1
DA:20,1
DA:21,1
DA:24,0
DA:25,0
DA:29,0
DA:31,1
DA:34,1
end_of_record
TN:
SF:/home/atcsol/git/Proyecto-Final-OBDH-UAHExplorer/uah_exp_freertos_project_2024/llsw/emu_gss/src/emu_gss_pus_service129.cpp
FN:8,_ZN21EmuGSS_TCProgram129_1C2EjPKcff
FNDA:2,_ZN21EmuGSS_TCProgram129_1C2EjPKcff
FN:19,_ZN21EmuGSS_TCProgram129_114BuildTCAppDataER13tc_descriptor
FNDA:2,_ZN21EmuGSS_TCProgram129_114BuildTCAppDataER13tc_descriptor
FN:24,_ZN21EmuGSS_TCProgram129_2C2EjPKcff
FNDA:2,_ZN21EmuGSS_TCProgram129_2C2EjPKcff
FN:35,_ZN21EmuGSS_TCProgram129_214BuildTCAppDataER13tc_descriptor
FNDA:2,_ZN21EmuGSS_TCProgram129_214BuildTCAppDataER13tc_descriptor
DA:8,2
DA:9,2
DA:11,2
DA:13,2
DA:14,2
DA:16,2
DA:17,2
DA:19,2
DA:20,2
DA:21,2
DA:22,2
DA:24,2
DA:25,2
DA:27,2
DA:29,2
DA:30,2
DA:32,2
DA:33,2
DA:35,2
DA:36,2
DA:37,2
DA:38,2
end_of_record
TN:
SF:/home/atcsol/git/Proyecto-Final-OBDH-UAHExplorer/uah_exp_freertos_project_2024/llsw/emu_gss/src/emu_gss_pus_service9.cpp
FN:13,_ZN21EmuGSS_TCProgram9_129C2EjPKcj
FNDA:0,_ZN21EmuGSS_TCProgram9_129C2EjPKcj
FN:23,_ZN21EmuGSS_TCProgram9_12914BuildTCAppDataER13tc_descriptor
FNDA:0,_ZN21EmuGSS_TCProgram9_12914BuildTCAppDataER13tc_descriptor
DA:13,0
DA:15,0
DA:17,0
DA:19,0
DA:20,0
DA:21,0
DA:23,0
DA:25,0
DA:27,0
end_of_record
TN:
SF:/home/atcsol/git/Proyecto-Final-OBDH-UAHExplorer/uah_exp_freertos_project_2024/llsw/emu_hw_timecode_drv/src/emu_hw_timecode_drv.cpp
FN:17,_Z23EmuHwTimeCodePassSecondv
FNDA:100,_Z23EmuHwTimeCodePassSecondv
FN:29,_Z30EmuHwTimeCodeSetNextUniTimeY2Kj
FNDA:0,_Z30EmuHwTimeCodeSetNextUniTimeY2Kj
FN:34,_Z33EmuHwTimeCodeGetCurrentUniTimeY2Kv
FNDA:200,_Z33EmuHwTimeCodeGetCurrentUniTimeY2Kv
DA:17,100
DA:19,100
DA:21,100
DA:25,100
DA:27,100
DA:29,0
DA:31,0
DA:32,0
DA:34,200
DA:36,200
end_of_record
TN:
SF:/home/atcsol/git/Proyecto-Final-OBDH-UAHExplorer/uah_exp_freertos_project_2024/llsw/tmtc_dyn_mem/src/tmtc_pool.cpp
FN:36,_Z14init_tmtc_poolv
FNDA:1,_Z14init_tmtc_poolv
FN:48,_Z15tmtc_pool_allocv
FNDA:83,_Z15tmtc_pool_allocv
FN:75,_Z14tmtc_pool_freePh
FNDA:83,_Z14tmtc_pool_freePh
DA:36,1
DA:39,21
DA:40,20
DA:45,1
DA:48,83
DA:50,83
DA:53,83
DA:56,102
DA:58,102
DA:59,83
DA:60,83
DA:61,83
DA:66,83
DA:70,83
DA:75,83
DA:80,83
DA:81,83
DA:83,83
DA:85,83
DA:86,83
DA:87,83
DA:90,83
end_of_record
SF:/home/atcsol/git/Proyecto-Final-OBDH-UAHExplorer/uah_exp_freertos_project_2024/service_libraries/edroomsl/edroombp/include/public/edroombp.h
FN:192,_ZN12Pr_SemaphoreD2Ev
FNDA:0,_ZN12Pr_SemaphoreD2Ev
FN:310,_ZN15Pr_SemaphoreRec4WaitEv
FNDA:0,_ZN15Pr_SemaphoreRec4WaitEv
FN:319,_ZN15Pr_SemaphoreRec6SignalEv
FNDA:0,_ZN15Pr_SemaphoreRec6SignalEv
FN:337,_ZN15Pr_SemaphoreRecD2Ev
FNDA:0,_ZN15Pr_SemaphoreRecD2Ev
DA:192,0
DA:194,0
DA:195,0
DA:310,0
DA:319,0
DA:337,0
end_of_record
TN:
SF:/home/atcsol/git/Proyecto-Final-OBDH-UAHExplorer/uah_exp_freertos_project_2024/llsw/tc_queue_drv/src/tc_queue_drv.cpp
FN:26,_Z12TCQueue_InitPFvvES0_
FNDA:1,_Z12TCQueue_InitPFvvES0_
FN:35,_Z14TCQueue_IsFullv
FNDA:0,_Z14TCQueue_IsFullv
FN:51,_Z15TCQueue_IsEmptyv
FNDA:0,_Z15TCQueue_IsEmptyv
FN:67,_Z23TCQueue_GetTailTCMemoryv
FNDA:5,_Z23TCQueue_GetTailTCMemoryv
FN:87,_Z23TCQueue_TailTCCompletedt
FNDA:5,_Z23TCQueue_TailTCCompletedt
FN:104,_Z23TCQueue_GetHeadTCMemoryRt
FNDA:5,_Z23TCQueue_GetHeadTCMemoryRt
FN:123,_Z23TCQueue_HeadTCExtractedv
FNDA:5,_Z23TCQueue_HeadTCExtractedv
DA:26,1
DA:28,1
DA:29,1
DA:30,1
DA:31,1
DA:33,1
DA:35,0
DA:40,0
DA:42,0
DA:44,0
DA:48,0
DA:51,0
DA:56,0
DA:58,0
DA:60,0
DA:64,0
DA:67,5
DA:73,5
DA:75,5
DA:76,5
DA:78,5
DA:82,5
DA:84,5
DA:87,5
DA:90,5
DA:94,5
DA:96,5
DA:98,5
DA:102,5
DA:104,5
DA:110,5
DA:112,5
DA:114,5
DA:116,5
DA:120,5
DA:123,5
DA:127,5
DA:129,5
DA:130,5
DA:132,5
DA:136,5
end_of_record
TN:
SF:/home/atcsol/git/Proyecto-Final-OBDH-UAHExplorer/uah_exp_freertos_project_2024/asw/dataclasses/CDTMList/include/public/cdtmlist.h
FN:43,_ZN8CDTMList11GetTMNumberEv
FNDA:287,_ZN8CDTMList11GetTMNumberEv
FN:45,_ZN8CDTMList5GetTMEh
FNDA:78,_ZN8CDTMList5GetTMEh
FN:47,_ZN8CDTMList6GetpTMEh
FNDA:78,_ZN8CDTMList6GetpTMEh
DA:43,287
DA:45,78
DA:47,78
end_of_record
SF:/home/atcsol/git/Proyecto-Final-OBDH-UAHExplorer/uah_exp_freertos_project_2024/service_libraries/edroomsl/edroombp/include/public/edroombp.h
FN:192,_ZN12Pr_SemaphoreD2Ev
FNDA:0,_ZN12Pr_SemaphoreD2Ev
FN:310,_ZN15Pr_SemaphoreRec4WaitEv
FNDA:0,_ZN15Pr_SemaphoreRec4WaitEv
FN:319,_ZN15Pr_SemaphoreRec6SignalEv
FNDA:0,_ZN15Pr_SemaphoreRec6SignalEv
FN:337,_ZN15Pr_SemaphoreRecD2Ev
FNDA:0,_ZN15Pr_SemaphoreRecD2Ev
DA:192,0
DA:194,0
DA:195,0
DA:310,0
DA:319,0
DA:337,0
end_of_record
SF:/home/atcsol/git/Proyecto-Final-OBDH-UAHExplorer/uah_exp_freertos_project_2024/llsw/emu_sc_channel_drv/src/emu_sc_channel_drv.cpp
FN:15,_Z12LockFunctionv
FNDA:20,_Z12LockFunctionv
FN:18,_Z14UnlockFunctionv
FNDA:20,_Z14UnlockFunctionv
FN:22,_Z15SC_Channel_InitP19CEDROOMIRQInterface
FNDA:1,_Z15SC_Channel_InitP19CEDROOMIRQInterface
FN:28,_Z17SC_Channel_RxDatav
FNDA:0,_Z17SC_Channel_RxDatav
FN:33,_Z20SC_Channel_GetNextTCP11CDTCHandler
FNDA:5,_Z20SC_Channel_GetNextTCP11CDTCHandler
FN:53,_Z27SC_Channel_HandlePendingTCsv
FNDA:0,_Z27SC_Channel_HandlePendingTCsv
FN:61,_Z15SC_Channel_TxTMPK13tm_descriptor
FNDA:78,_Z15SC_Channel_TxTMPK13tm_descriptor
FN:67,_Z19SC_Channel_TxTMListP8CDTMList
FNDA:209,_Z19SC_Channel_TxTMListP8CDTMList
DA:15,20
DA:16,20
DA:17,20
DA:18,20
DA:19,20
DA:20,20
DA:22,1
DA:23,1
DA:25,1
DA:26,1
DA:28,0
DA:30,0
DA:33,5
DA:38,5
DA:40,5
DA:41,5
DA:43,97
DA:44,92
DA:48,5
DA:51,5
DA:53,0
DA:56,0
DA:58,0
DA:59,0
DA:61,78
DA:63,78
DA:65,78
DA:67,209
DA:68,287
DA:70,78
DA:72,78
DA:74,209
end_of_record
TN:
SF:/home/atcsol/git/Proyecto-Final-OBDH-UAHExplorer/uah_exp_freertos_project_2024/llsw/emu_uah_exp_kinematics/src/emu_uah_exp_kinematics.cpp
FN:12,_ZN18UAHExpEmuKinematic12EmuKinematicEfff
FNDA:100,_ZN18UAHExpEmuKinematic12EmuKinematicEfff
DA:12,100
DA:15,100
DA:22,100
DA:23,100
DA:24,100
DA:27,100
DA:30,100
DA:31,100
DA:32,100
DA:33,100
DA:36,100
DA:37,100
DA:38,30
DA:39,100
DA:40,100
DA:41,27
DA:42,100
DA:43,100
DA:44,0
DA:47,100
DA:48,100
end_of_record
TN:
SF:/home/atcsol/git/Proyecto-Final-OBDH-UAHExplorer/uah_exp_freertos_project_2024/service_libraries/icuasw_pus_services/src/icuasw_pus_service1.cpp
FN:37,_ZN11PUSService110IsCRCValidER11CDTCHandler
FNDA:5,_ZN11PUSService110IsCRCValidER11CDTCHandler
FN:49,_ZN11PUSService111IsAPIDValidER11CDTCHandler
FNDA:5,_ZN11PUSService111IsAPIDValidER11CDTCHandler
FN:58,_ZN11PUSService115IsSourceIDValidER11CDTCHandler
FNDA:5,_ZN11PUSService115IsSourceIDValidER11CDTCHandler
FN:72,_ZN11PUSService116TryTCAcceptationER11CDTCHandler
FNDA:5,_ZN11PUSService116TryTCAcceptationER11CDTCHandler
FN:252,_ZN11PUSService119CompleteTCRejectionER11CDTCHandler
FNDA:0,_ZN11PUSService119CompleteTCRejectionER11CDTCHandler
FN:258,_ZN11PUSService111BuildTM_1_1ER11CDTCHandlerR8CDTMList
FNDA:5,_ZN11PUSService111BuildTM_1_1ER11CDTCHandlerR8CDTMList
FN:269,_ZN11PUSService111BuildTM_1_2ER11CDTCHandlerR8CDTMList
FNDA:0,_ZN11PUSService111BuildTM_1_2ER11CDTCHandlerR8CDTMList
FN:324,_ZN11PUSService111BuildTM_1_7ER11CDTCHandlerR8CDTMList
FNDA:5,_ZN11PUSService111BuildTM_1_7ER11CDTCHandlerR8CDTMList
FN:335,_ZN11PUSService130BuildTM_1_8_TC_3_X_SIDNotValidER11CDTCHandlerR8CDTMListt
FNDA:0,_ZN11PUSService130BuildTM_1_8_TC_3_X_SIDNotValidER11CDTCHandlerR8CDTMListt
FN:349,_ZN11PUSService131BuildTM_1_8_TC_20_X_PIDNotValidER11CDTCHandlerR8CDTMListt
FNDA:0,_ZN11PUSService131BuildTM_1_8_TC_20_X_PIDNotValidER11CDTCHandlerR8CDTMListt
FN:363,_ZN11PUSService129BuildTM_1_8_TC_5_X_RIDUnknownER11CDTCHandlerR8CDTMListt
FNDA:0,_ZN11PUSService129BuildTM_1_8_TC_5_X_RIDUnknownER11CDTCHandlerR8CDTMListt
FN:376,_ZN11PUSService135BuildTM_1_8_TC_12_X_PMONIDUndefinedER11CDTCHandlerR8CDTMListt
FNDA:0,_ZN11PUSService135BuildTM_1_8_TC_12_X_PMONIDUndefinedER11CDTCHandlerR8CDTMListt
FN:389,_ZN11PUSService133BuildTM_1_8_TC_12_X_PMONIDDefinedER11CDTCHandlerR8CDTMListt
FNDA:0,_ZN11PUSService133BuildTM_1_8_TC_12_X_PMONIDDefinedER11CDTCHandlerR8CDTMListt
FN:403,_ZN11PUSService134BuildTM_1_8_TC_12_X_PMONIDNotValidER11CDTCHandlerR8CDTMListt
FNDA:0,_ZN11PUSService134BuildTM_1_8_TC_12_X_PMONIDNotValidER11CDTCHandlerR8CDTMListt
FN:417,_ZN11PUSService135BuildTM_1_8_TC_19_X_EvActionEnabledER11CDTCHandlerR8CDTMListt
FNDA:0,_ZN11PUSService135BuildTM_1_8_TC_19_X_EvActionEnabledER11CDTCHandlerR8CDTMListt
FN:431,_ZN11PUSService132BuildTM_1_8_TC_19_1_MaxEvActionsER11CDTCHandlerR8CDTMListt
FNDA:0,_ZN11PUSService132BuildTM_1_8_TC_19_1_MaxEvActionsER11CDTCHandlerR8CDTMListt
FN:445,_ZN11PUSService136BuildTM_1_8_TC_19_1_EvActionRejectedER11CDTCHandlerR8CDTMListt
FNDA:0,_ZN11PUSService136BuildTM_1_8_TC_19_1_EvActionRejectedER11CDTCHandlerR8CDTMListt
FN:459,_ZN11PUSService138BuildTM_1_8_TC_19_X_EvActionNotDefinedER11CDTCHandlerR8CDTMListt
FNDA:0,_ZN11PUSService138BuildTM_1_8_TC_19_X_EvActionNotDefinedER11CDTCHandlerR8CDTMListt
FN:473,_ZN11PUSService133BuildTM_1_8_TC_2_X_DeviceNotValidER11CDTCHandlerR8CDTMListh
FNDA:0,_ZN11PUSService133BuildTM_1_8_TC_2_X_DeviceNotValidER11CDTCHandlerR8CDTMListh
DA:37,5
DA:39,5
DA:40,5
DA:43,5
DA:45,5
DA:49,5
DA:52,5
DA:54,5
DA:58,5
DA:61,5
DA:64,5
DA:65,5
DA:66,10
DA:68,5
DA:72,5
DA:74,5
DA:76,5
DA:78,0
DA:80,5
DA:82,0
DA:84,5
DA:86,0
DA:90,5
DA:91,5
DA:93,5
DA:94,0
DA:95,0
DA:96,0
DA:97,0
DA:98,0
DA:99,0
DA:100,0
DA:102,0
DA:103,0
DA:104,0
DA:105,0
DA:107,0
DA:108,0
DA:109,0
DA:110,0
DA:112,0
DA:113,0
DA:114,0
DA:115,0
DA:117,0
DA:118,0
DA:120,0
DA:121,0
DA:123,0
DA:124,0
DA:125,0
DA:126,0
DA:128,0
DA:129,0
DA:130,0
DA:132,0
DA:133,0
DA:134,0
DA:136,0
DA:137,0
DA:139,0
DA:140,0
DA:142,0
DA:143,0
DA:144,0
DA:145,0
DA:147,0
DA:148,0
DA:149,0
DA:151,0
DA:152,0
DA:153,0
DA:154,0
DA:156,0
DA:157,0
DA:158,0
DA:159,0
DA:161,0
DA:162,0
DA:163,0
DA:165,0
DA:166,0
DA:167,0
DA:169,0
DA:170,0
DA:171,0
DA:172,0
DA:174,0
DA:175,0
DA:176,0
DA:177,0
DA:179,0
DA:180,0
DA:181,0
DA:183,0
DA:184,0
DA:185,0
DA:187,0
DA:188,0
DA:190,0
DA:192,0
DA:193,0
DA:194,0
DA:195,0
DA:197,0
DA:198,0
DA:199,0
DA:200,0
DA:202,0
DA:203,0
DA:204,0
DA:206,0
DA:207,0
DA:209,0
DA:210,0
DA:212,0
DA:213,1
DA:214,1
DA:215,1
DA:217,1
DA:218,1
DA:220,0
DA:221,0
DA:223,1
DA:226,4
DA:227,4
DA:228,2
DA:230,2
DA:231,2
DA:232,2
DA:234,2
DA:235,2
DA:236,0
DA:237,0
DA:239,4
DA:240,0
DA:242,0
DA:243,0
DA:248,5
DA:250,5
DA:252,0
DA:254,0
DA:256,0
DA:258,5
DA:260,5
DA:262,5
DA:263,5
DA:265,5
DA:267,5
DA:269,0
DA:271,0
DA:272,0
DA:274,0
DA:275,0
DA:277,0
DA:279,0
DA:281,0
DA:283,0
DA:284,0
DA:286,0
DA:288,0
DA:290,0
DA:292,0
DA:294,0
DA:296,0
DA:298,0
DA:300,0
DA:302,0
DA:304,0
DA:306,0
DA:308,0
DA:310,0
DA:312,0
DA:314,0
DA:316,0
DA:320,0
DA:322,0
DA:324,5
DA:326,5
DA:328,5
DA:329,5
DA:331,5
DA:333,5
DA:335,0
DA:338,0
DA:340,0
DA:341,0
DA:342,0
DA:343,0
DA:345,0
DA:347,0
DA:349,0
DA:352,0
DA:354,0
DA:355,0
DA:356,0
DA:357,0
DA:359,0
DA:361,0
DA:363,0
DA:366,0
DA:368,0
DA:369,0
DA:370,0
DA:371,0
DA:373,0
DA:374,0
DA:376,0
DA:378,0
DA:380,0
DA:381,0
DA:382,0
DA:383,0
DA:385,0
DA:387,0
DA:389,0
DA:392,0
DA:394,0
DA:395,0
DA:396,0
DA:397,0
DA:399,0
DA:401,0
DA:403,0
DA:406,0
DA:408,0
DA:409,0
DA:410,0
DA:411,0
DA:413,0
DA:415,0
DA:417,0
DA:420,0
DA:422,0
DA:423,0
DA:424,0
DA:425,0
DA:427,0
DA:429,0
DA:431,0
DA:434,0
DA:436,0
DA:437,0
DA:438,0
DA:439,0
DA:441,0
DA:443,0
DA:445,0
DA:448,0
DA:450,0
DA:451,0
DA:452,0
DA:453,0
DA:455,0
DA:457,0
DA:459,0
DA:462,0
DA:464,0
DA:465,0
DA:466,0
DA:467,0
DA:469,0
DA:471,0
DA:473,0
DA:476,0
DA:478,0
DA:479,0
DA:480,0
DA:481,0
DA:483,0
DA:485,0
end_of_record
SF:/home/atcsol/git/Proyecto-Final-OBDH-UAHExplorer/uah_exp_freertos_project_2024/asw/dataclasses/CDTCHandler/include/public/cdtchandler.h
FN:100,_ZN11CDTCHandler19SetExecCtrlAsPrioTCEv
FNDA:0,_ZN11CDTCHandler19SetExecCtrlAsPrioTCEv
FN:110,_ZN11CDTCHandler21SetExecCtrlAsRebootTCEv
FNDA:1,_ZN11CDTCHandler21SetExecCtrlAsRebootTCEv
FN:120,_ZN11CDTCHandler22SetExecCtrlAsHK_FDIRTCEv
FNDA:0,_ZN11CDTCHandler22SetExecCtrlAsHK_FDIRTCEv
FN:130,_ZN11CDTCHandler18SetExecCtrlAsBKGTCEv
FNDA:0,_ZN11CDTCHandler18SetExecCtrlAsBKGTCEv
FN:139,_ZN11CDTCHandler15SetExecGuidanceEv
FNDA:4,_ZN11CDTCHandler15SetExecGuidanceEv
FN:149,_ZN11CDTCHandler20SetAcceptationStatusE20TTCAcceptationStatus
FNDA:5,_ZN11CDTCHandler20SetAcceptationStatusE20TTCAcceptationStatus
FN:160,_ZN11CDTCHandler20GetAcceptationStatusEv
FNDA:0,_ZN11CDTCHandler20GetAcceptationStatusEv
DA:100,0
DA:101,0
DA:103,0
DA:110,1
DA:112,1
DA:113,1
DA:120,0
DA:122,0
DA:123,0
DA:130,0
DA:132,0
DA:133,0
DA:139,4
DA:141,4
DA:142,4
DA:149,5
DA:151,5
DA:153,5
DA:160,0
DA:162,0
end_of_record
TN:
SF:/home/atcsol/git/Proyecto-Final-OBDH-UAHExplorer/uah_exp_freertos_project_2024/service_libraries/icuasw_pus_services/src/icuasw_pus_service3.cpp
FN:25,_ZN11PUSService34InitEv
FNDA:1,_ZN11PUSService34InitEv
FN:30,_ZN11PUSService36ExecTCER11CDTCHandlerR8CDTMList
FNDA:0,_ZN11PUSService36ExecTCER11CDTCHandlerR8CDTMList
FN:47,_ZN11PUSService311GetSIDIndexEtRh
FNDA:0,_ZN11PUSService311GetSIDIndexEtRh
FN:58,_ZN11PUSService318ExecEnableConfigTCER11CDTCHandlerR8CDTMListb
FNDA:0,_ZN11PUSService318ExecEnableConfigTCER11CDTCHandlerR8CDTMListb
FN:74,_ZN11PUSService39Exec3_5TCER11CDTCHandlerR8CDTMList
FNDA:0,_ZN11PUSService39Exec3_5TCER11CDTCHandlerR8CDTMList
FN:79,_ZN11PUSService39Exec3_6TCER11CDTCHandlerR8CDTMList
FNDA:0,_ZN11PUSService39Exec3_6TCER11CDTCHandlerR8CDTMList
FN:84,_ZN11PUSService310Exec3_31TCER11CDTCHandlerR8CDTMList
FNDA:0,_ZN11PUSService310Exec3_31TCER11CDTCHandlerR8CDTMList
FN:103,_ZN11PUSService34DoHKER8CDTMList
FNDA:99,_ZN11PUSService34DoHKER8CDTMList
FN:128,_ZN11PUSService312BuildTM_3_25ER8CDTMListR10HKConfig_t
FNDA:68,_ZN11PUSService312BuildTM_3_25ER8CDTMListR10HKConfig_t
DA:25,1
DA:27,1
DA:28,1
DA:30,0
DA:32,0
DA:33,0
DA:34,0
DA:35,0
DA:36,0
DA:37,0
DA:38,0
DA:39,0
DA:40,0
DA:41,0
DA:42,0
DA:45,0
DA:47,0
DA:48,0
DA:49,0
DA:50,0
DA:51,0
DA:52,0
DA:55,0
DA:58,0
DA:62,0
DA:64,0
DA:65,0
DA:66,0
DA:67,0
DA:69,0
DA:72,0
DA:74,0
DA:76,0
DA:78,0
DA:79,0
DA:81,0
DA:83,0
DA:84,0
DA:87,0
DA:89,0
DA:90,0
DA:91,0
DA:93,0
DA:95,0
DA:98,0
DA:103,99
DA:107,99
DA:112,99
DA:114,891
DA:115,792
DA:116,198
DA:117,198
DA:119,68
DA:121,68
DA:126,99
DA:128,68
DA:130,68
DA:132,68
DA:134,389
DA:135,321
DA:136,321
DA:137,321
DA:141,68
DA:143,68
end_of_record
TN:
SF:/home/atcsol/git/Proyecto-Final-OBDH-UAHExplorer/uah_exp_freertos_project_2024/service_libraries/icuasw_pus_services/src/icuasw_pus_service2.cpp
FN:11,_ZN11PUSService26ExecTCER11CDTCHandlerR8CDTMList
FNDA:0,_ZN11PUSService26ExecTCER11CDTCHandlerR8CDTMList
FN:25,_ZN11PUSService29Exec2_1TCER11CDTCHandlerR8CDTMList
FNDA:0,_ZN11PUSService29Exec2_1TCER11CDTCHandlerR8CDTMList
DA:11,0
DA:13,0
DA:14,0
DA:16,0
DA:18,0
DA:19,0
DA:20,0
DA:23,0
DA:25,0
DA:28,0
DA:31,0
DA:33,0
DA:35,0
DA:37,0
DA:44,0
DA:46,0
DA:50,0
DA:54,0
DA:56,0
end_of_record
TN:
SF:/home/atcsol/git/Proyecto-Final-OBDH-UAHExplorer/uah_exp_freertos_project_2024/service_libraries/icuasw_pus_services/src/icuasw_pus_service9.cpp
FN:13,_ZN11PUSService96ExecTCER11CDTCHandlerR8CDTMList
FNDA:0,_ZN11PUSService96ExecTCER11CDTCHandlerR8CDTMList
FN:25,_ZN11PUSService920GetCurrentUniTimeY2KEv
FNDA:0,_ZN11PUSService920GetCurrentUniTimeY2KEv
DA:13,0
DA:15,0
DA:16,0
DA:17,0
DA:18,0
DA:19,0
DA:23,0
DA:25,0
DA:27,0
end_of_record
TN:
SF:/home/atcsol/git/Proyecto-Final-OBDH-UAHExplorer/uah_exp_freertos_project_2024/asw/dataclasses/CDEventList/include/public/cdeventlist.h
FN:25,_ZN11CDEventList8AddEventEPK11EventInfo_t
FNDA:0,_ZN11CDEventList8AddEventEPK11EventInfo_t
DA:25,0
DA:27,0
DA:28,0
DA:31,0
DA:32,0
DA:34,0
DA:37,0
DA:38,0
DA:40,0
DA:42,0
end_of_record
SF:/home/atcsol/git/Proyecto-Final-OBDH-UAHExplorer/uah_exp_freertos_project_2024/service_libraries/icuasw_pus_services/src/icuasw_pus_service12.cpp
FN:33,_ZN12PUSService126ExecTCER11CDTCHandlerR8CDTMList
FNDA:0,_ZN12PUSService126ExecTCER11CDTCHandlerR8CDTMList
FN:54,_ZN12PUSService1210Exec12_5TCER11CDTCHandlerR8CDTMList
FNDA:0,_ZN12PUSService1210Exec12_5TCER11CDTCHandlerR8CDTMList
FN:122,_ZN12PUSService1210Exec12_1TCER11CDTCHandlerR8CDTMList
FNDA:0,_ZN12PUSService1210Exec12_1TCER11CDTCHandlerR8CDTMList
FN:144,_ZN12PUSService1210Exec12_2TCER11CDTCHandlerR8CDTMList
FNDA:0,_ZN12PUSService1210Exec12_2TCER11CDTCHandlerR8CDTMList
FN:165,_ZN12PUSService1212DoMonitoringER11CDEventList
FNDA:99,_ZN12PUSService1212DoMonitoringER11CDEventList
FN:256,_ZN12PUSService1212TriggerEventER11CDEventListtttt
FNDA:0,_ZN12PUSService1212TriggerEventER11CDEventListtttt
FN:269,_ZN12PUSService1212UpdateStatusEt13CheckStatus_t
FNDA:0,_ZN12PUSService1212UpdateStatusEt13CheckStatus_t
DA:33,0
DA:35,0
DA:37,0
DA:38,0
DA:39,0
DA:40,0
DA:41,0
DA:42,0
DA:43,0
DA:44,0
DA:45,0
DA:47,0
DA:48,0
DA:52,0
DA:54,0
DA:64,0
DA:66,0
DA:68,0
DA:71,0
DA:73,0
DA:75,0
DA:76,0
DA:77,0
DA:78,0
DA:79,0
DA:81,0
DA:82,0
DA:83,0
DA:84,0
DA:87,0
DA:89,0
DA:92,0
DA:93,0
DA:95,0
DA:98,0
DA:102,0
DA:108,0
DA:115,0
DA:120,0
DA:122,0
DA:126,0
DA:128,0
DA:129,0
DA:130,0
DA:131,0
DA:133,0
DA:136,0
DA:142,0
DA:144,0
DA:148,0
DA:150,0
DA:151,0
DA:152,0
DA:154,0
DA:157,0
DA:163,0
DA:165,99
DA:169,99
DA:173,891
DA:175,792
DA:178,0
DA:179,0
DA:182,0
DA:183,0
DA:186,0
DA:189,0
DA:192,0
DA:194,0
DA:198,0
DA:199,0
DA:202,0
DA:203,0
DA:205,0
DA:208,0
DA:211,0
DA:212,0
DA:215,0
DA:216,0
DA:218,0
DA:221,0
DA:225,0
DA:229,0
DA:238,0
DA:239,0
DA:240,0
DA:243,0
DA:249,0
DA:254,99
DA:256,0
DA:260,0
DA:261,0
DA:262,0
DA:263,0
DA:264,0
DA:265,0
DA:267,0
DA:269,0
DA:272,0
DA:274,0
DA:275,0
DA:278,0
DA:281,0
DA:282,0
DA:285,0
end_of_record
TN:
SF:/home/atcsol/git/Proyecto-Final-OBDH-UAHExplorer/uah_exp_freertos_project_2024/asw/dataclasses/CDEventList/include/public/cdeventlist.h
FN:60,_ZN11CDEventList12GetEventInfoEh
FNDA:0,_ZN11CDEventList12GetEventInfoEh
FN:76,_ZN11CDEventList17GetNumberOfEventsEv
FNDA:0,_ZN11CDEventList17GetNumberOfEventsEv
DA:60,0
DA:62,0
DA:63,0
DA:64,0
DA:67,0
DA:76,0
DA:77,0
end_of_record
SF:/home/atcsol/git/Proyecto-Final-OBDH-UAHExplorer/uah_exp_freertos_project_2024/service_libraries/icuasw_pus_services/src/icuasw_pus_service5.cpp
FN:14,_ZN11PUSService523GetRIDEnableConfigIndexEt
FNDA:0,_ZN11PUSService523GetRIDEnableConfigIndexEt
FN:40,_ZN11PUSService524GetRIDEnableConfigOffsetEt
FNDA:0,_ZN11PUSService524GetRIDEnableConfigOffsetEt
FN:49,_ZN11PUSService512IsIndexValidEh
FNDA:0,_ZN11PUSService512IsIndexValidEh
FN:56,_ZN11PUSService510GetRIDTypeEt
FNDA:0,_ZN11PUSService510GetRIDTypeEt
FN:92,_ZN11PUSService512IsRIDEnabledEt
FNDA:0,_ZN11PUSService512IsRIDEnabledEt
FN:112,_ZN11PUSService517BuildEventListTMsER11CDEventListR8CDTMList
FNDA:99,_ZN11PUSService517BuildEventListTMsER11CDEventListR8CDTMList
FN:141,_ZN11PUSService59Exec5_5TCER11CDTCHandlerR8CDTMList
FNDA:0,_ZN11PUSService59Exec5_5TCER11CDTCHandlerR8CDTMList
FN:164,_ZN11PUSService59Exec5_6TCER11CDTCHandlerR8CDTMList
FNDA:0,_ZN11PUSService59Exec5_6TCER11CDTCHandlerR8CDTMList
FN:187,_ZN11PUSService56ExecTCER11CDTCHandlerR8CDTMList
FNDA:0,_ZN11PUSService56ExecTCER11CDTCHandlerR8CDTMList
DA:14,0
DA:16,0
DA:18,0
DA:20,0
DA:21,0
DA:22,0
DA:23,0
DA:24,0
DA:25,0
DA:26,0
DA:27,0
DA:28,0
DA:29,0
DA:30,0
DA:31,0
DA:32,0
DA:33,0
DA:34,0
DA:37,0
DA:40,0
DA:44,0
DA:46,0
DA:49,0
DA:52,0
DA:56,0
DA:58,0
DA:59,0
DA:60,0
DA:62,0
DA:63,0
DA:64,0
DA:65,0
DA:67,0
DA:68,0
DA:69,0
DA:70,0
DA:72,0
DA:73,0
DA:74,0
DA:75,0
DA:77,0
DA:78,0
DA:79,0
DA:80,0
DA:83,0
DA:85,0
DA:86,0
DA:89,0
DA:92,0
DA:94,0
DA:98,0
DA:100,0
DA:102,0
DA:104,0
DA:105,0
DA:109,0
DA:112,99
DA:116,99
DA:117,99
DA:119,0
DA:121,0
DA:123,0
DA:125,0
DA:127,0
DA:128,0
DA:129,0
DA:130,0
DA:132,0
DA:138,99
DA:141,0
DA:147,0
DA:148,0
DA:149,0
DA:151,0
DA:153,0
DA:155,0
DA:159,0
DA:161,0
DA:164,0
DA:170,0
DA:172,0
DA:173,0
DA:175,0
DA:177,0
DA:179,0
DA:183,0
DA:185,0
DA:187,0
DA:189,0
DA:191,0
DA:193,0
DA:194,0
DA:195,0
DA:197,0
DA:198,0
DA:199,0
DA:201,0
DA:203,0
end_of_record
TN:
SF:/home/atcsol/git/Proyecto-Final-OBDH-UAHExplorer/uah_exp_freertos_project_2024/service_libraries/icuasw_pus_services/src/icuasw_pus_services.cpp
FN:16,_ZN14SystemDataPool4InitEv
FNDA:1,_ZN14SystemDataPool4InitEv
FN:21,_ZN14SystemDataPool12SetFromInt16Eis
FNDA:400,_ZN14SystemDataPool12SetFromInt16Eis
FN:31,_ZN17PUSPrioTCExecutor6ExecTCER11CDTCHandlerR8CDTMListR11CDEventList
FNDA:1,_ZN17PUSPrioTCExecutor6ExecTCER11CDTCHandlerR8CDTMListR11CDEventList
FN:55,_ZN22PUS_HK_FDIR_TCExecutor6ExecTCER11CDTCHandlerR8CDTMListR11CDEventList
FNDA:0,_ZN22PUS_HK_FDIR_TCExecutor6ExecTCER11CDTCHandlerR8CDTMListR11CDEventList
FN:80,_ZN17PUS_BKGTCExecutor6ExecTCER11CDTCHandlerR8CDTMListR11CDEventList
FNDA:0,_ZN17PUS_BKGTCExecutor6ExecTCER11CDTCHandlerR8CDTMListR11CDEventList
FN:95,_ZN22PUS_GuidanceTCExecutor6ExecTCER11CDTCHandlerR8CDTMListR11CDEventList
FNDA:4,_ZN22PUS_GuidanceTCExecutor6ExecTCER11CDTCHandlerR8CDTMListR11CDEventList
DA:16,1
DA:17,65
DA:18,64
DA:19,1
DA:21,400
DA:23,400
DA:25,400
DA:26,400
DA:29,400
DA:31,1
DA:34,1
DA:35,1
DA:37,0
DA:38,0
DA:39,0
DA:40,0
DA:41,0
DA:42,0
DA:43,0
DA:44,0
DA:45,0
DA:46,1
DA:47,1
DA:48,1
DA:49,0
DA:50,0
DA:52,1
DA:53,1
DA:55,0
DA:58,0
DA:60,0
DA:62,0
DA:63,0
DA:64,0
DA:65,0
DA:66,0
DA:67,0
DA:68,0
DA:69,0
DA:70,0
DA:71,0
DA:72,0
DA:73,0
DA:74,0
DA:75,0
DA:77,0
DA:78,0
DA:80,0
DA:82,0
DA:84,0
DA:85,0
DA:86,0
DA:87,0
DA:88,0
DA:89,0
DA:91,0
DA:93,0
DA:95,4
DA:97,4
DA:99,4
DA:100,4
DA:101,4
DA:102,4
DA:103,0
DA:104,0
DA:108,4
DA:109,4
end_of_record
TN:
SF:/home/atcsol/git/Proyecto-Final-OBDH-UAHExplorer/uah_exp_freertos_project_2024/service_libraries/icuasw_pus_services/src/icuasw_pus_service20.cpp
FN:12,_ZN12PUSService206ExecTCER11CDTCHandlerR8CDTMList
FNDA:0,_ZN12PUSService206ExecTCER11CDTCHandlerR8CDTMList
FN:28,_ZN12PUSService2010Exec20_3TCER11CDTCHandlerR8CDTMList
FNDA:0,_ZN12PUSService2010Exec20_3TCER11CDTCHandlerR8CDTMList
FN:43,_ZN12PUSService2010Exec20_1TCER11CDTCHandlerR8CDTMList
FNDA:0,_ZN12PUSService2010Exec20_1TCER11CDTCHandlerR8CDTMList
DA:12,0
DA:14,0
DA:15,0
DA:16,0
DA:17,0
DA:18,0
DA:19,0
DA:20,0
DA:22,0
DA:26,0
DA:28,0
DA:30,0
DA:32,0
DA:34,0
DA:35,0
DA:37,0
DA:39,0
DA:42,0
DA:43,0
DA:45,0
DA:49,0
DA:50,0
DA:52,0
DA:53,0
DA:54,0
DA:56,0
DA:57,0
DA:61,0
DA:64,0
end_of_record
TN:
SF:/home/atcsol/git/Proyecto-Final-OBDH-UAHExplorer/uah_exp_freertos_project_2024/service_libraries/icuasw_pus_services/include/icuasw_pus_services/icuasw_pus_service19.h
end_of_record
SF:/home/atcsol/git/Proyecto-Final-OBDH-UAHExplorer/uah_exp_freertos_project_2024/asw/dataclasses/CDEventList/include/public/cdeventlist.h
FN:60,_ZN11CDEventList12GetEventInfoEh
FNDA:0,_ZN11CDEventList12GetEventInfoEh
FN:70,_ZN11CDEventList14ClearEventListEv
FNDA:204,_ZN11CDEventList14ClearEventListEv
FN:76,_ZN11CDEventList17GetNumberOfEventsEv
FNDA:198,_ZN11CDEventList17GetNumberOfEventsEv
DA:60,0
DA:62,0
DA:63,0
DA:64,0
DA:67,0
DA:70,204
DA:71,204
DA:72,204
DA:74,204
DA:76,198
DA:77,198
end_of_record
SF:/home/atcsol/git/Proyecto-Final-OBDH-UAHExplorer/uah_exp_freertos_project_2024/asw/dataclasses/CDTCHandler/include/public/cdtchandler.h
FN:184,_ZN11CDTCHandler10IsAcceptedEv
FNDA:5,_ZN11CDTCHandler10IsAcceptedEv
DA:184,5
DA:185,5
end_of_record
SF:/home/atcsol/git/Proyecto-Final-OBDH-UAHExplorer/uah_exp_freertos_project_2024/asw/dataclasses/CDEvAction/include/public/cdevaction.h
FN:24,_ZN10CDEvAction17SetActionTCPacketER11CDTCHandler
FNDA:0,_ZN10CDEvAction17SetActionTCPacketER11CDTCHandler
FN:29,_ZN10CDEvActionC2Ev
FNDA:44,_ZN10CDEvActionC2Ev
DA:24,0
DA:26,0
DA:27,0
DA:29,44
DA:30,44
DA:31,44
DA:33,44
end_of_record
SF:/home/atcsol/git/Proyecto-Final-OBDH-UAHExplorer/uah_exp_freertos_project_2024/service_libraries/edroomsl/edroombp/include/public/edroombp.h
FN:192,_ZN12Pr_SemaphoreD2Ev
FNDA:7,_ZN12Pr_SemaphoreD2Ev
FN:310,_ZN15Pr_SemaphoreRec4WaitEv
FNDA:4603,_ZN15Pr_SemaphoreRec4WaitEv
FN:319,_ZN15Pr_SemaphoreRec6SignalEv
FNDA:4603,_ZN15Pr_SemaphoreRec6SignalEv
FN:337,_ZN15Pr_SemaphoreRecD2Ev
FNDA:5,_ZN15Pr_SemaphoreRecD2Ev
DA:192,7
DA:194,7
DA:195,7
DA:310,4603
DA:319,4603
DA:337,5
end_of_record
SF:/home/atcsol/git/Proyecto-Final-OBDH-UAHExplorer/uah_exp_freertos_project_2024/service_libraries/icuasw_pus_services/src/icuasw_pus_service19.cpp
FN:30,_ZN12PUSService1917GetEvActionConfigEtRhRb
FNDA:0,_ZN12PUSService1917GetEvActionConfigEtRhRb
FN:43,_ZN12PUSService1920GetFreeEvActionIndexERh
FNDA:0,_ZN12PUSService1920GetFreeEvActionIndexERh
FN:54,_ZN12PUSService1910Exec19_1TCER11CDTCHandlerR8CDTMList
FNDA:0,_ZN12PUSService1910Exec19_1TCER11CDTCHandlerR8CDTMList
FN:136,_ZN12PUSService1910Exec19_2TCER11CDTCHandlerR8CDTMList
FNDA:0,_ZN12PUSService1910Exec19_2TCER11CDTCHandlerR8CDTMList
FN:178,_ZN12PUSService1910Exec19_4TCER11CDTCHandlerR8CDTMList
FNDA:0,_ZN12PUSService1910Exec19_4TCER11CDTCHandlerR8CDTMList
FN:211,_ZN12PUSService1910Exec19_5TCER11CDTCHandlerR8CDTMList
FNDA:0,_ZN12PUSService1910Exec19_5TCER11CDTCHandlerR8CDTMList
FN:243,_ZN12PUSService196ExecTCER11CDTCHandlerR8CDTMList
FNDA:0,_ZN12PUSService196ExecTCER11CDTCHandlerR8CDTMList
FN:266,_ZN12PUSService1918ManageEventActionsER11CDEventList
FNDA:99,_ZN12PUSService1918ManageEventActionsER11CDEventList
FN:294,_ZN12PUSService1914InsertEvActionEthPht
FNDA:0,_ZN12PUSService1914InsertEvActionEthPht
FN:348,_ZN12PUSService1918NewPendingEvActionEth
FNDA:0,_ZN12PUSService1918NewPendingEvActionEth
FN:362,_ZN12PUSService1920IsEvActionQueueEmptyEv
FNDA:99,_ZN12PUSService1920IsEvActionQueueEmptyEv
FN:372,_ZN12PUSService1924ExtractEvActionFromQueueER10CDEvAction
FNDA:0,_ZN12PUSService1924ExtractEvActionFromQueueER10CDEvAction
FN:395,_ZN12PUSService1920GetEvActionTCHandlerER10CDEvActionR11CDTCHandler
FNDA:0,_ZN12PUSService1920GetEvActionTCHandlerER10CDEvActionR11CDTCHandler
FN:401,_ZN12PUSService1924TriggerEvActionExecutionEv
FNDA:0,_ZN12PUSService1924TriggerEvActionExecutionEv
FN:407,_ZN12PUSService1922HandlePendingEvActionsEv
FNDA:0,_ZN12PUSService1922HandlePendingEvActionsEv
DA:30,0
DA:32,0
DA:33,0
DA:34,0
DA:35,0
DA:36,0
DA:37,0
DA:40,0
DA:43,0
DA:44,0
DA:45,0
DA:46,0
DA:47,0
DA:48,0
DA:51,0
DA:54,0
DA:57,0
DA:58,0
DA:63,0
DA:65,0
DA:67,0
DA:69,0
DA:73,0
DA:74,0
DA:75,0
DA:76,0
DA:77,0
DA:80,0
DA:82,0
DA:87,0
DA:89,0
DA:97,0
DA:99,0
DA:100,0
DA:103,0
DA:105,0
DA:106,0
DA:107,0
DA:109,0
DA:113,0
DA:115,0
DA:117,0
DA:122,0
DA:123,0
DA:125,0
DA:134,0
DA:136,0
DA:140,0
DA:145,0
DA:147,0
DA:149,0
DA:151,0
DA:155,0
DA:157,0
DA:158,0
DA:163,0
DA:164,0
DA:165,0
DA:171,0
DA:176,0
DA:178,0
DA:182,0
DA:187,0
DA:189,0
DA:191,0
DA:193,0
DA:197,0
DA:199,0
DA:200,0
DA:204,0
DA:209,0
DA:211,0
DA:215,0
DA:220,0
DA:222,0
DA:224,0
DA:226,0
DA:230,0
DA:232,0
DA:233,0
DA:237,0
DA:241,0
DA:243,0
DA:245,0
DA:247,0
DA:248,0
DA:249,0
DA:250,0
DA:251,0
DA:252,0
DA:253,0
DA:254,0
DA:255,0
DA:256,0
DA:257,0
DA:258,0
DA:260,0
DA:261,0
DA:264,0
DA:266,99
DA:268,99
DA:269,99
DA:271,0
DA:273,0
DA:277,0
DA:279,0
DA:280,0
DA:282,0
DA:291,99
DA:292,99
DA:294,0
DA:298,0
DA:299,0
DA:302,0
DA:304,0
DA:306,0
DA:307,0
DA:308,0
DA:309,0
DA:310,0
DA:311,0
DA:313,0
DA:314,0
DA:315,0
DA:317,0
DA:318,0
DA:319,0
DA:320,0
DA:321,0
DA:326,0
DA:328,0
DA:330,0
DA:331,0
DA:333,0
DA:335,0
DA:337,0
DA:340,0
DA:342,0
DA:345,0
DA:348,0
DA:350,0
DA:352,0
DA:353,0
DA:354,0
DA:357,0
DA:362,99
DA:364,99
DA:365,99
DA:366,495
DA:367,396
DA:368,99
DA:369,99
DA:372,0
DA:374,0
DA:375,0
DA:378,0
DA:380,0
DA:381,0
DA:382,0
DA:383,0
DA:384,0
DA:385,0
DA:386,0
DA:388,0
DA:389,0
DA:391,0
DA:395,0
DA:398,0
DA:399,0
DA:401,0
DA:403,0
DA:404,0
DA:407,0
DA:409,0
DA:410,0
DA:411,0
end_of_record
TN:
SF:/home/atcsol/git/Proyecto-Final-OBDH-UAHExplorer/uah_exp_freertos_project_2024/service_libraries/icuasw_pus_services/src/icuasw_pus_service128.cpp
FN:11,_ZN13PUSService1286ExecTCER11CDTCHandlerR8CDTMList
FNDA:1,_ZN13PUSService1286ExecTCER11CDTCHandlerR8CDTMList
FN:26,_ZN13PUSService12811Exec128_1TCER11CDTCHandlerR8CDTMList
FNDA:1,_ZN13PUSService12811Exec128_1TCER11CDTCHandlerR8CDTMList
FN:34,_ZN13PUSService1289MngRebootEv
FNDA:1,_ZN13PUSService1289MngRebootEv
DA:11,1
DA:13,1
DA:14,1
DA:16,1
DA:18,1
DA:19,0
DA:20,0
DA:24,1
DA:26,1
DA:29,1
DA:32,1
DA:34,1
DA:36,1
end_of_record
TN:
SF:/home/atcsol/git/Proyecto-Final-OBDH-UAHExplorer/uah_exp_freertos_project_2024/service_libraries/icuasw_pus_services/src/icuasw_pus_service17.cpp
FN:10,_ZN12PUSService176ExecTCER11CDTCHandlerR8CDTMList
FNDA:0,_ZN12PUSService176ExecTCER11CDTCHandlerR8CDTMList
FN:26,_ZN12PUSService1712BuildTM_17_2ER8CDTMList
FNDA:0,_ZN12PUSService1712BuildTM_17_2ER8CDTMList
DA:10,0
DA:12,0
DA:13,0
DA:15,0
DA:17,0
DA:18,0
DA:19,0
DA:20,0
DA:24,0
DA:26,0
DA:28,0
DA:30,0
DA:32,0
end_of_record
TN:
SF:/home/atcsol/git/Proyecto-Final-OBDH-UAHExplorer/uah_exp_freertos_project_2024/service_libraries/icuasw_pus_services/src/icuasw_pus_service129.cpp
FN:26,_ZN13PUSService1296ExecTCER11CDTCHandlerR8CDTMList
FNDA:4,_ZN13PUSService1296ExecTCER11CDTCHandlerR8CDTMList
FN:44,_ZN13PUSService12911Exec129_1TCER11CDTCHandlerR8CDTMList
FNDA:2,_ZN13PUSService12911Exec129_1TCER11CDTCHandlerR8CDTMList
FN:65,_ZN13PUSService12911Exec129_2TCER11CDTCHandlerR8CDTMList
FNDA:2,_ZN13PUSService12911Exec129_2TCER11CDTCHandlerR8CDTMList
FN:89,_ZN13PUSService12913LimitActuatorEff
FNDA:200,_ZN13PUSService12913LimitActuatorEff
FN:100,_ZN13PUSService12915GuidanceControlEv
FNDA:100,_ZN13PUSService12915GuidanceControlEv
DA:26,4
DA:28,4
DA:30,2
DA:31,2
DA:32,2
DA:33,2
DA:34,2
DA:35,2
DA:38,0
DA:39,0
DA:42,4
DA:44,2
DA:50,2
DA:51,2
DA:55,2
DA:56,2
DA:59,2
DA:63,2
DA:65,2
DA:71,2
DA:72,2
DA:76,2
DA:77,2
DA:80,2
DA:84,2
DA:89,200
DA:91,200
DA:92,200
DA:93,3
DA:94,197
DA:95,3
DA:97,200
DA:100,100
DA:106,100
DA:109,100
DA:110,100
DA:114,100
DA:115,100
DA:129,100
DA:130,100
DA:131,100
DA:132,100
DA:135,100
DA:136,100
DA:137,100
DA:138,100
DA:140,100
end_of_record
SF:/home/atcsol/git/Proyecto-Final-OBDH-UAHExplorer/uah_exp_freertos_project_2024/llsw/emu_uah_exp_kinematics/include/public/emu_uah_exp_kinematics.h
FN:34,_ZN18UAHExpEmuKinematicC2Ev
FNDA:1,_ZN18UAHExpEmuKinematicC2Ev
DA:34,1
DA:35,1
DA:36,1
DA:37,1
DA:38,1
DA:39,1
end_of_record
TN:
SF:/home/atcsol/git/Proyecto-Final-OBDH-UAHExplorer/uah_exp_freertos_project_2024/service_libraries/edroomsl/edroombp/include/public/edroombp.h
FN:192,_ZN12Pr_SemaphoreD2Ev
FNDA:0,_ZN12Pr_SemaphoreD2Ev
FN:261,_ZN15Pr_SemaphoreBinD2Ev
FNDA:0,_ZN15Pr_SemaphoreBinD2Ev
DA:192,0
DA:194,0
DA:195,0
DA:261,0
DA:264,0
end_of_record
SF:/home/atcsol/git/Proyecto-Final-OBDH-UAHExplorer/uah_exp_freertos_project_2024/service_libraries/edroomsl/edroombp/src/freertossapi/edroombp.cpp
FN:35,_ZN11lista_tareaC2Ev
FNDA:1,_ZN11lista_tareaC2Ev
FN:37,_ZN11lista_tarea3addEP19tskTaskControlBlockP7Pr_Task
FNDA:12,_ZN11lista_tarea3addEP19tskTaskControlBlockP7Pr_Task
FN:48,_ZN11lista_tarea6removeEP19tskTaskControlBlock
FNDA:0,_ZN11lista_tarea6removeEP19tskTaskControlBlock
FN:73,_ZN11lista_tarea4findEP19tskTaskControlBlock
FNDA:311,_ZN11lista_tarea4findEP19tskTaskControlBlock
FN:100,_ZN9Pr_KernelC2Ev
FNDA:1,_ZN9Pr_KernelC2Ev
FN:105,_ZN9Pr_Kernel5StartEv
FNDA:1,_ZN9Pr_Kernel5StartEv
FN:112,_ZN9Pr_Kernel5PanicEPKc
FNDA:0,_ZN9Pr_Kernel5PanicEPKc
FN:126,_ZN7Pr_TaskC2EPFvvEPKc15TEDROOMPriorityj
FNDA:0,_ZN7Pr_TaskC2EPFvvEPKc15TEDROOMPriorityj
FN:154,_ZN7Pr_TaskC2EPFvvE15TEDROOMPriorityj
FNDA:12,_ZN7Pr_TaskC2EPFvvE15TEDROOMPriorityj
FN:182,_ZN7Pr_Task11SetPriorityE15TEDROOMPriority
FNDA:0,_ZN7Pr_Task11SetPriorityE15TEDROOMPriority
FN:193,_ZN7Pr_Task13SetMaxPrioTmpE15TEDROOMPriority
FNDA:301,_ZN7Pr_Task13SetMaxPrioTmpE15TEDROOMPriority
FN:206,_ZN7Pr_Task13SetMaxPrioMsgE15TEDROOMPriority
FNDA:0,_ZN7Pr_Task13SetMaxPrioMsgE15TEDROOMPriority
FN:219,_ZN7Pr_Task14RestorePrioMsgEv
FNDA:300,_ZN7Pr_Task14RestorePrioMsgEv
FN:228,_ZN7Pr_Task11GetTaskPrioEv
FNDA:0,_ZN7Pr_Task11GetTaskPrioEv
FN:233,_ZN7Pr_Task14ChangePriorityE15TEDROOMPriority
FNDA:601,_ZN7Pr_Task14ChangePriorityE15TEDROOMPriority
FN:249,_ZN7Pr_TimeC2Ev
FNDA:1109,_ZN7Pr_TimeC2Ev
FN:255,_ZN7Pr_TimeC2ERKS_
FNDA:939,_ZN7Pr_TimeC2ERKS_
FN:261,_ZN7Pr_TimeC2Ejj
FNDA:303,_ZN7Pr_TimeC2Ejj
FN:267,_ZN7Pr_TimeC2E8timespec
FNDA:0,_ZN7Pr_TimeC2E8timespec
FN:281,_ZN7Pr_Time7GetTimeEv
FNDA:1106,_ZN7Pr_Time7GetTimeEv
FN:291,_ZN7Pr_Time8GetTicksEv
FNDA:335,_ZN7Pr_Time8GetTicksEv
FN:302,_ZN7Pr_Time8FineTimeEv
FNDA:100,_ZN7Pr_Time8FineTimeEv
FN:313,_ZN7Pr_TimepLERKS_
FNDA:302,_ZN7Pr_TimepLERKS_
FN:319,_ZN7Pr_TimemIERKS_
FNDA:401,_ZN7Pr_TimemIERKS_
FN:345,_ZN7Pr_TimeaSERKS_
FNDA:1509,_ZN7Pr_TimeaSERKS_
FN:352,_ZN7Pr_TimeeqERKS_
FNDA:0,_ZN7Pr_TimeeqERKS_
FN:357,_ZN7Pr_TimeneERKS_
FNDA:0,_ZN7Pr_TimeneERKS_
FN:362,_ZN7Pr_TimegtERKS_
FNDA:301,_ZN7Pr_TimegtERKS_
FN:367,_ZN7Pr_TimeltERKS_
FNDA:0,_ZN7Pr_TimeltERKS_
FN:372,_ZN7Pr_TimegeERKS_
FNDA:0,_ZN7Pr_TimegeERKS_
FN:377,_ZN7Pr_TimeleERKS_
FNDA:0,_ZN7Pr_TimeleERKS_
FN:384,_ZNK7Pr_Time5TicksEv
FNDA:0,_ZNK7Pr_Time5TicksEv
FN:390,_Z10Pr_DelayInRK7Pr_Time
FNDA:34,_Z10Pr_DelayInRK7Pr_Time
FN:396,_Z10Pr_DelayAtRK7Pr_Time
FNDA:0,_Z10Pr_DelayAtRK7Pr_Time
FN:420,_ZN12Pr_SemaphoreC2Ej
FNDA:69,_ZN12Pr_SemaphoreC2Ej
FN:431,_ZN15Pr_SemaphoreBinC2EPKcj
FNDA:0,_ZN15Pr_SemaphoreBinC2EPKcj
FN:443,_ZN15Pr_SemaphoreBinC2Ej
FNDA:50,_ZN15Pr_SemaphoreBinC2Ej
FN:455,_ZN15Pr_SemaphoreBin6SignalEv
FNDA:1857,_ZN15Pr_SemaphoreBin6SignalEv
FN:463,_ZN15Pr_SemaphoreBin4WaitEv
FNDA:1862,_ZN15Pr_SemaphoreBin4WaitEv
FN:472,_ZN15Pr_SemaphoreBin8WaitCondEv
FNDA:304,_ZN15Pr_SemaphoreBin8WaitCondEv
FN:481,_ZN15Pr_SemaphoreBin9WaitTimedERK7Pr_Time
FNDA:301,_ZN15Pr_SemaphoreBin9WaitTimedERK7Pr_Time
FN:498,_ZN15Pr_SemaphoreRecC2EPKc
FNDA:0,_ZN15Pr_SemaphoreRecC2EPKc
FN:508,_ZN15Pr_SemaphoreRecC2Ev
FNDA:19,_ZN15Pr_SemaphoreRecC2Ev
FN:521,_ZN15Pr_SemaphoreRecC2EPKcj
FNDA:0,_ZN15Pr_SemaphoreRecC2EPKcj
FN:537,_ZN15Pr_SemaphoreRecC2Ei
FNDA:0,_ZN15Pr_SemaphoreRecC2Ei
FN:554,_ZN15Pr_SemaphoreRec6UnLockEv
FNDA:4603,_ZN15Pr_SemaphoreRec6UnLockEv
FN:562,_ZN15Pr_SemaphoreRec4LockEv
FNDA:4603,_ZN15Pr_SemaphoreRec4LockEv
FN:576,_Z7Pr_SendR7Pr_TaskPv
FNDA:311,_Z7Pr_SendR7Pr_TaskPv
FN:583,_Z10Pr_ReceivePvj
FNDA:311,_Z10Pr_ReceivePvj
FN:607,_ZN13Pr_IRQManager7MaskIRQEj
FNDA:1,_ZN13Pr_IRQManager7MaskIRQEj
FN:611,_ZN13Pr_IRQManager10DisableIRQEj
FNDA:0,_ZN13Pr_IRQManager10DisableIRQEj
FN:616,_ZN13Pr_IRQManager9UnMaskIRQEj
FNDA:1,_ZN13Pr_IRQManager9UnMaskIRQEj
FN:620,_ZN13Pr_IRQManager9EnableIRQEj
FNDA:5,_ZN13Pr_IRQManager9EnableIRQEj
FN:625,_ZN13Pr_IRQManager14DisableAllIRQsEv
FNDA:0,_ZN13Pr_IRQManager14DisableAllIRQsEv
FN:630,_ZN13Pr_IRQManager19ApplyCurrentIRQMaskEv
FNDA:0,_ZN13Pr_IRQManager19ApplyCurrentIRQMaskEv
FN:635,_ZN13Pr_IRQManager17InstallIRQHandlerEPFvvEhh
FNDA:1,_ZN13Pr_IRQManager17InstallIRQHandlerEPFvvEhh
FN:642,_ZN13Pr_IRQManager19DeinstallIRQHandlerEhh
FNDA:0,_ZN13Pr_IRQManager19DeinstallIRQHandlerEhh
FN:663,_ZN11Pr_IRQEventC2Eh
FNDA:2,_ZN11Pr_IRQEventC2Eh
FN:670,_ZN11Pr_IRQEvent6SignalEv
FNDA:0,_ZN11Pr_IRQEvent6SignalEv
FN:683,_ZN11Pr_IRQEvent14SignalFromTaskEv
FNDA:5,_ZN11Pr_IRQEvent14SignalFromTaskEv
FN:688,_ZN11Pr_IRQEvent4WaitEv
FNDA:7,_ZN11Pr_IRQEvent4WaitEv
FN:693,_ZN11Pr_IRQEvent9WaitTimedER7Pr_Time
FNDA:0,_ZN11Pr_IRQEvent9WaitTimedER7Pr_Time
FN:700,_ZN11Pr_IRQEvent8WaitCondEv
FNDA:0,_ZN11Pr_IRQEvent8WaitCondEv
DA:35,1
DA:37,12
DA:40,12
DA:41,12
DA:42,12
DA:43,12
DA:44,12
DA:45,12
DA:48,0
DA:50,0
DA:51,0
DA:53,0
DA:55,0
DA:57,0
DA:58,0
DA:60,0
DA:61,0
DA:62,0
DA:66,0
DA:67,0
DA:70,0
DA:73,311
DA:76,311
DA:78,1873
DA:80,1873
DA:82,311
DA:86,1562
DA:89,0
DA:100,1
DA:103,1
DA:105,1
DA:108,1
DA:110,0
DA:112,0
DA:114,0
DA:116,0
DA:126,0
DA:129,0
DA:130,0
DA:131,0
DA:132,0
DA:134,0
DA:135,0
DA:137,0
DA:138,0
DA:139,0
DA:141,0
DA:142,0
DA:143,0
DA:146,0
DA:150,0
DA:152,0
DA:154,12
DA:156,12
DA:157,12
DA:158,12
DA:159,12
DA:163,12
DA:165,12
DA:166,12
DA:167,12
DA:169,12
DA:170,12
DA:171,12
DA:174,12
DA:178,0
DA:180,12
DA:182,0
DA:184,0
DA:186,0
DA:188,0
DA:189,0
DA:191,0
DA:193,301
DA:199,301
DA:201,301
DA:202,301
DA:204,301
DA:206,0
DA:208,0
DA:210,0
DA:211,0
DA:213,0
DA:214,0
DA:217,0
DA:219,300
DA:221,300
DA:223,300
DA:224,300
DA:226,299
DA:228,0
DA:230,0
DA:233,601
DA:236,601
DA:237,601
DA:239,601
DA:240,600
DA:249,1109
DA:251,1109
DA:252,1109
DA:253,1109
DA:255,939
DA:257,939
DA:258,939
DA:259,939
DA:261,303
DA:263,303
DA:264,303
DA:265,303
DA:267,0
DA:272,0
DA:273,0
DA:274,0
DA:275,0
DA:276,0
DA:281,1106
DA:283,1106
DA:284,1106
DA:286,1106
DA:288,1106
DA:289,1106
DA:291,335
DA:293,335
DA:294,335
DA:296,335
DA:297,335
DA:298,335
DA:299,335
DA:302,100
DA:304,100
DA:306,100
DA:313,302
DA:315,302
DA:316,302
DA:319,401
DA:321,401
DA:323,401
DA:324,401
DA:326,0
DA:328,0
DA:329,0
DA:332,0
DA:335,401
DA:338,0
DA:340,401
DA:345,1509
DA:347,1509
DA:348,1509
DA:349,1509
DA:352,0
DA:354,0
DA:357,0
DA:359,0
DA:362,301
DA:364,301
DA:367,0
DA:369,0
DA:372,0
DA:374,0
DA:377,0
DA:379,0
DA:384,0
DA:387,0
DA:390,34
DA:392,34
DA:393,34
DA:394,33
DA:396,0
DA:398,0
DA:399,0
DA:401,0
DA:402,0
DA:403,0
DA:404,0
DA:406,0
DA:410,0
DA:414,0
DA:420,69
DA:422,69
DA:423,69
DA:431,0
DA:432,0
DA:434,0
DA:435,0
DA:437,0
DA:439,0
DA:443,50
DA:445,50
DA:446,50
DA:447,50
DA:449,0
DA:451,50
DA:455,1857
DA:457,1857
DA:459,0
DA:461,1857
DA:463,1862
DA:465,1862
DA:467,0
DA:470,1856
DA:472,304
DA:476,304
DA:478,304
DA:481,301
DA:484,301
DA:486,301
DA:488,300
DA:498,0
DA:500,0
DA:501,0
DA:503,0
DA:505,0
DA:508,19
DA:511,19
DA:512,19
DA:513,19
DA:515,0
DA:517,19
DA:521,0
DA:529,0
DA:530,0
DA:532,0
DA:534,0
DA:537,0
DA:541,0
DA:547,0
DA:548,0
DA:550,0
DA:552,0
DA:554,4603
DA:556,4603
DA:558,0
DA:560,4603
DA:562,4603
DA:564,4603
DA:566,0
DA:569,0
DA:570,0
DA:572,4603
DA:576,311
DA:578,311
DA:579,311
DA:580,311
DA:581,310
DA:583,311
DA:585,311
DA:587,311
DA:591,310
DA:592,310
DA:594,7606
DA:596,7296
DA:599,310
DA:600,310
DA:607,1
DA:609,1
DA:611,0
DA:614,0
DA:616,1
DA:619,1
DA:620,5
DA:623,5
DA:625,0
DA:628,0
DA:630,0
DA:633,0
DA:635,1
DA:640,1
DA:642,0
DA:647,0
DA:663,2
DA:665,2
DA:666,2
DA:670,0
DA:681,0
DA:683,5
DA:685,5
DA:687,5
DA:688,7
DA:690,7
DA:691,5
DA:693,0
DA:696,0
DA:700,0
DA:702,0
end_of_record
TN:
SF:/home/atcsol/git/Proyecto-Final-OBDH-UAHExplorer/uah_exp_freertos_project_2024/service_libraries/edroomsl/edroombp/include/public/edroombp.h
FN:192,_ZN12Pr_SemaphoreD2Ev
FNDA:0,_ZN12Pr_SemaphoreD2Ev
FN:261,_ZN15Pr_SemaphoreBinD2Ev
FNDA:2,_ZN15Pr_SemaphoreBinD2Ev
FN:310,_ZN15Pr_SemaphoreRec4WaitEv
FNDA:0,_ZN15Pr_SemaphoreRec4WaitEv
FN:319,_ZN15Pr_SemaphoreRec6SignalEv
FNDA:0,_ZN15Pr_SemaphoreRec6SignalEv
FN:337,_ZN15Pr_SemaphoreRecD2Ev
FNDA:0,_ZN15Pr_SemaphoreRecD2Ev
FN:533,_ZN7Pr_TaskD2Ev
FNDA:0,_ZN7Pr_TaskD2Ev
DA:192,0
DA:194,0
DA:195,0
DA:261,2
DA:264,2
DA:310,0
DA:319,0
DA:337,0
DA:533,0
DA:536,0
end_of_record
SF:/home/atcsol/git/Proyecto-Final-OBDH-UAHExplorer/uah_exp_freertos_project_2024/service_libraries/edroomsl/edroomsl/include/edroomsl/edroomsl.h
FN:115,_ZN11CEDROOMPoolD2Ev
FNDA:20,_ZN11CEDROOMPoolD2Ev
FN:115,_ZN11CEDROOMPoolD0Ev
FNDA:0,_ZN11CEDROOMPoolD0Ev
FN:231,_ZN17CEDROOMMemoryPool7IsEmptyEv
FNDA:831,_ZN17CEDROOMMemoryPool7IsEmptyEv
FN:236,_ZN17CEDROOMMemoryPoolD2Ev
FNDA:20,_ZN17CEDROOMMemoryPoolD2Ev
FN:236,_ZN17CEDROOMMemoryPoolD0Ev
FNDA:0,_ZN17CEDROOMMemoryPoolD0Ev
FN:314,_ZN26CEDROOMProtectedMemoryPoolD2Ev
FNDA:2,_ZN26CEDROOMProtectedMemoryPoolD2Ev
FN:314,_ZN26CEDROOMProtectedMemoryPoolD0Ev
FNDA:0,_ZN26CEDROOMProtectedMemoryPoolD0Ev
FN:578,_ZN14CEDROOMMessageD2Ev
FNDA:69,_ZN14CEDROOMMessageD2Ev
FN:578,_ZN14CEDROOMMessageD0Ev
FNDA:0,_ZN14CEDROOMMessageD0Ev
FN:643,_ZN20CEDROOMSynchrMessageD0Ev
FNDA:0,_ZN20CEDROOMSynchrMessageD0Ev
FN:643,_ZN20CEDROOMSynchrMessageD2Ev
FNDA:0,_ZN20CEDROOMSynchrMessageD2Ev
FN:688,_ZN21CEDROOMTimeOutMessageD2Ev
FNDA:9,_ZN21CEDROOMTimeOutMessageD2Ev
FN:688,_ZN21CEDROOMTimeOutMessageD0Ev
FNDA:0,_ZN21CEDROOMTimeOutMessageD0Ev
FN:812,_ZN25CEDROOMSynchrMessagesPoolD2Ev
FNDA:0,_ZN25CEDROOMSynchrMessagesPoolD2Ev
FN:812,_ZN25CEDROOMSynchrMessagesPoolD0Ev
FNDA:0,_ZN25CEDROOMSynchrMessagesPoolD0Ev
FN:1808,_ZN16CEDROOMTXChannelC2Ev
FNDA:14,_ZN16CEDROOMTXChannelC2Ev
FN:1812,_ZN16CEDROOMTXChannelD2Ev
FNDA:14,_ZN16CEDROOMTXChannelD2Ev
FN:1812,_ZN16CEDROOMTXChannelD0Ev
FNDA:0,_ZN16CEDROOMTXChannelD0Ev
FN:1883,_ZN21CEDROOMLocalTXChannelD2Ev
FNDA:14,_ZN21CEDROOMLocalTXChannelD2Ev
FN:1883,_ZN21CEDROOMLocalTXChannelD0Ev
FNDA:0,_ZN21CEDROOMLocalTXChannelD0Ev
FN:2224,_ZN16CEDROOMComponent12SetErrorFlagE15TEDROOMCmpError
FNDA:0,_ZN16CEDROOMComponent12SetErrorFlagE15TEDROOMCmpError
FN:2248,_ZN16CEDROOMComponent14GetNomPriorityEv
FNDA:520,_ZN16CEDROOMComponent14GetNomPriorityEv
DA:115,0
DA:115,20
DA:231,831
DA:236,0
DA:236,20
DA:314,0
DA:314,2
DA:578,0
DA:578,69
DA:643,0
DA:643,0
DA:688,0
DA:688,9
DA:812,0
DA:812,0
DA:1808,14
DA:1812,0
DA:1812,14
DA:1883,0
DA:1883,14
DA:2224,0
DA:2225,0
DA:2248,520
end_of_record
SF:/home/atcsol/git/Proyecto-Final-OBDH-UAHExplorer/uah_exp_freertos_project_2024/service_libraries/edroomsl/edroomsl/src/edroomsl.cpp
FN:102,_ZN17CEDROOMMemoryPool9SetMemoryEjPvPbj
FNDA:25,_ZN17CEDROOMMemoryPool9SetMemoryEjPvPbj
FN:127,_ZN17CEDROOMMemoryPool14GetElementSizeEv
FNDA:0,_ZN17CEDROOMMemoryPool14GetElementSizeEv
FN:135,_ZN17CEDROOMMemoryPool9AllocDataEv
FNDA:828,_ZN17CEDROOMMemoryPool9AllocDataEv
FN:147,_ZN17CEDROOMMemoryPool9AllocDataERj
FNDA:1348,_ZN17CEDROOMMemoryPool9AllocDataERj
FN:191,_ZN17CEDROOMMemoryPool8FreeDataEPv
FNDA:1339,_ZN17CEDROOMMemoryPool8FreeDataEPv
FN:244,_ZN26CEDROOMProtectedMemoryPoolC2EjPvPbj
FNDA:7,_ZN26CEDROOMProtectedMemoryPoolC2EjPvPbj
FN:256,_ZN26CEDROOMProtectedMemoryPool9AllocDataEv
FNDA:218,_ZN26CEDROOMProtectedMemoryPool9AllocDataEv
FN:268,_ZN26CEDROOMProtectedMemoryPool9AllocDataERj
FNDA:218,_ZN26CEDROOMProtectedMemoryPool9AllocDataERj
FN:285,_ZN26CEDROOMProtectedMemoryPool8FreeDataEPv
FNDA:217,_ZN26CEDROOMProtectedMemoryPool8FreeDataEPv
FN:330,_ZN14CEDROOMMessageC2Ev
FNDA:81,_ZN14CEDROOMMessageC2Ev
FN:345,_ZN14CEDROOMMessage16FreeDeliveryInfoEv
FNDA:218,_ZN14CEDROOMMessage16FreeDeliveryInfoEv
FN:352,_ZN14CEDROOMMessage13GetPInterfaceEv
FNDA:308,_ZN14CEDROOMMessage13GetPInterfaceEv
FN:357,_ZN14CEDROOMMessage14GetMsgDataSizeEv
FNDA:0,_ZN14CEDROOMMessage14GetMsgDataSizeEv
FN:368,_ZN14CEDROOMMessage5replyEi
FNDA:0,_ZN14CEDROOMMessage5replyEi
FN:376,_ZN14CEDROOMMessage5replyEiPvP17CEDROOMMemoryPool
FNDA:0,_ZN14CEDROOMMessage5replyEiPvP17CEDROOMMemoryPool
FN:390,_ZN20CEDROOMSynchrMessageC2Ev
FNDA:6,_ZN20CEDROOMSynchrMessageC2Ev
FN:399,_ZN20CEDROOMSynchrMessage5replyEi
FNDA:209,_ZN20CEDROOMSynchrMessage5replyEi
FN:407,_ZN20CEDROOMSynchrMessage5replyEiPvP17CEDROOMMemoryPool
FNDA:209,_ZN20CEDROOMSynchrMessage5replyEiPvP17CEDROOMMemoryPool
FN:432,_ZN21CEDROOMTimeOutMessage16FreeDeliveryInfoEv
FNDA:299,_ZN21CEDROOMTimeOutMessage16FreeDeliveryInfoEv
FN:457,_ZN25CEDROOMSynchrMessagesPoolC2EP20CEDROOMSynchrMessage
FNDA:6,_ZN25CEDROOMSynchrMessagesPoolC2EP20CEDROOMSynchrMessage
FN:465,_ZN25CEDROOMSynchrMessagesPool14GetElementSizeEv
FNDA:0,_ZN25CEDROOMSynchrMessagesPool14GetElementSizeEv
FN:471,_ZN25CEDROOMSynchrMessagesPool9AllocDataEv
FNDA:209,_ZN25CEDROOMSynchrMessagesPool9AllocDataEv
FN:478,_ZN25CEDROOMSynchrMessagesPool8FreeDataEPv
FNDA:209,_ZN25CEDROOMSynchrMessagesPool8FreeDataEPv
FN:484,_ZN19CEDROOMMessagesPool9SetMemoryEjP14CEDROOMMessagePb
FNDA:6,_ZN19CEDROOMMessagesPool9SetMemoryEjP14CEDROOMMessagePb
FN:492,_ZN19CEDROOMMessagesPool9AllocDataEv
FNDA:9,_ZN19CEDROOMMessagesPool9AllocDataEv
FN:498,_ZN26CEDROOMTimeOutMessagesPool9SetMemoryEjP21CEDROOMTimeOutMessagePb
FNDA:3,_ZN26CEDROOMTimeOutMessagesPool9SetMemoryEjP21CEDROOMTimeOutMessagePb
FN:506,_ZN26CEDROOMTimeOutMessagesPool9AllocDataEv
FNDA:302,_ZN26CEDROOMTimeOutMessagesPool9AllocDataEv
FN:543,_ZN16CEDROOMInterface4sendEi
FNDA:0,_ZN16CEDROOMInterface4sendEi
FN:550,_ZN16CEDROOMInterface4sendEiPvP17CEDROOMMemoryPool
FNDA:4,_ZN16CEDROOMInterface4sendEiPvP17CEDROOMMemoryPool
FN:562,_ZN16CEDROOMInterface6invokeEi
FNDA:0,_ZN16CEDROOMInterface6invokeEi
FN:570,_ZN16CEDROOMInterface6invokeEiPvP17CEDROOMMemoryPool
FNDA:209,_ZN16CEDROOMInterface6invokeEiPvP17CEDROOMMemoryPool
FN:580,_ZN16CEDROOMInterface16applyConverFunctEi
FNDA:209,_ZN16CEDROOMInterface16applyConverFunctEi
FN:588,_ZN16CEDROOMInterfaceeqERS_
FNDA:308,_ZN16CEDROOMInterfaceeqERS_
FN:592,_ZN16CEDROOMInterfaceneERS_
FNDA:0,_ZN16CEDROOMInterfaceneERS_
FN:601,_ZN19CEDROOMIRQInterface14InstallHandlerEv
FNDA:1,_ZN19CEDROOMIRQInterface14InstallHandlerEv
FN:610,_ZN19CEDROOMIRQInterface16DeInstallHandlerEv
FNDA:0,_ZN19CEDROOMIRQInterface16DeInstallHandlerEv
FN:620,_ZN19CEDROOMIRQInterface17EndIRQHandlerTaskEv
FNDA:0,_ZN19CEDROOMIRQInterface17EndIRQHandlerTaskEv
FN:630,_ZN19CEDROOMIRQInterface7MaskIRQEv
FNDA:1,_ZN19CEDROOMIRQInterface7MaskIRQEv
FN:635,_ZN19CEDROOMIRQInterface9UnMaskIRQEv
FNDA:1,_ZN19CEDROOMIRQInterface9UnMaskIRQEv
FN:640,_ZN19CEDROOMIRQInterfaceC2EPFvvES1_R11Pr_IRQEventR15Pr_SemaphoreBina
FNDA:2,_ZN19CEDROOMIRQInterfaceC2EPFvvES1_R11Pr_IRQEventR15Pr_SemaphoreBina
FN:653,_ZN19CEDROOMIRQInterface9NewIRQMsgEiPvP17CEDROOMMemoryPool
FNDA:5,_ZN19CEDROOMIRQInterface9NewIRQMsgEiPvP17CEDROOMMemoryPool
FN:716,_ZN26CEDROOMNonMaskIRQInterfaceC2EPFvvES1_R11Pr_IRQEventR15Pr_SemaphoreBinhPh
FNDA:0,_ZN26CEDROOMNonMaskIRQInterfaceC2EPFvvES1_R11Pr_IRQEventR15Pr_SemaphoreBinhPh
FN:728,_ZN26CEDROOMNonMaskIRQInterface14InstallHandlerEv
FNDA:0,_ZN26CEDROOMNonMaskIRQInterface14InstallHandlerEv
FN:739,_ZN26CEDROOMNonMaskIRQInterface16DeInstallHandlerEv
FNDA:0,_ZN26CEDROOMNonMaskIRQInterface16DeInstallHandlerEv
FN:748,_ZN26CEDROOMNonMaskIRQInterface17EndIRQHandlerTaskEv
FNDA:0,_ZN26CEDROOMNonMaskIRQInterface17EndIRQHandlerTaskEv
FN:790,_ZN12CEDROOMTimerC2Ev
FNDA:302,_ZN12CEDROOMTimerC2Ev
FN:795,_ZN12CEDROOMTimer7IsValidEv
FNDA:0,_ZN12CEDROOMTimer7IsValidEv
FN:807,_ZN22CEDROOMTimingInterfaceC2EP16CEDROOMTimingSAPj
FNDA:3,_ZN22CEDROOMTimingInterfaceC2EP16CEDROOMTimingSAPj
FN:820,_ZN22CEDROOMTimingInterface8InformAtE7Pr_Time
FNDA:302,_ZN22CEDROOMTimingInterface8InformAtE7Pr_Time
FN:833,_ZN22CEDROOMTimingInterface8InformInE7Pr_Time
FNDA:0,_ZN22CEDROOMTimingInterface8InformInE7Pr_Time
FN:849,_ZN22CEDROOMTimingInterface11currentTimeER7Pr_Time
FNDA:0,_ZN22CEDROOMTimingInterface11currentTimeER7Pr_Time
FN:856,_ZN22CEDROOMTimingInterface11currentTimeEv
FNDA:0,_ZN22CEDROOMTimingInterface11currentTimeEv
FN:870,_ZN16CEDROOMTimingSAPC2EP16CEDROOMComponentjP19CEDROOMTimingMemory
FNDA:3,_ZN16CEDROOMTimingSAPC2EP16CEDROOMComponentjP19CEDROOMTimingMemory
FN:895,_ZN16CEDROOMTimingSAP14EDROOMfunTimerEv
FNDA:3,_ZN16CEDROOMTimingSAP14EDROOMfunTimerEv
FN:1056,_ZN16CEDROOMTimingSAP8InformAtEP22CEDROOMTimingInterface7Pr_Time
FNDA:302,_ZN16CEDROOMTimingSAP8InformAtEP22CEDROOMTimingInterface7Pr_Time
FN:1236,_ZN16CEDROOMTimingSAP5StartEv
FNDA:3,_ZN16CEDROOMTimingSAP5StartEv
FN:1248,_ZN19CEDROOMTimingMemory9SetMemoryEjP16CEDROOMTimerInfoPbP21CEDROOMTimeOutMessageS2_
FNDA:3,_ZN19CEDROOMTimingMemory9SetMemoryEjP16CEDROOMTimerInfoPbP21CEDROOMTimeOutMessageS2_
FN:1265,_ZN20CEDROOMTimerInfoPool9SetMemoryEjP16CEDROOMTimerInfoPb
FNDA:3,_ZN20CEDROOMTimerInfoPool9SetMemoryEjP16CEDROOMTimerInfoPb
FN:1276,_ZN20CEDROOMTimerInfoPool9AllocDataERj
FNDA:302,_ZN20CEDROOMTimerInfoPool9AllocDataERj
FN:1310,_ZN12CEDROOMQueue10CQueueNodeC2Ev
FNDA:73,_ZN12CEDROOMQueue10CQueueNodeC2Ev
FN:1318,_ZN12CEDROOMQueue10CQueueHeadC2Ev
FNDA:48,_ZN12CEDROOMQueue10CQueueHeadC2Ev
FN:1328,_ZN12CEDROOMQueueC2EjP7Pr_TaskP15Pr_SemaphoreRectPNS_21CEDROOMQueueNodesPoolEPNS_10CQueueHeadE
FNDA:6,_ZN12CEDROOMQueueC2EjP7Pr_TaskP15Pr_SemaphoreRectPNS_21CEDROOMQueueNodesPoolEPNS_10CQueueHeadE
FN:1361,_ZN12CEDROOMQueue6IsFullEv
FNDA:517,_ZN12CEDROOMQueue6IsFullEv
FN:1369,_ZN12CEDROOMQueue2InEP14CEDROOMMessage
FNDA:517,_ZN12CEDROOMQueue2InEP14CEDROOMMessage
FN:1401,_ZN12CEDROOMQueue3OutERP14CEDROOMMessage
FNDA:521,_ZN12CEDROOMQueue3OutERP14CEDROOMMessage
FN:1456,_ZN12CEDROOMQueue26UpDateSortedQueueHeadsListE15TEDROOMPriority
FNDA:517,_ZN12CEDROOMQueue26UpDateSortedQueueHeadsListE15TEDROOMPriority
FN:1511,_ZN12CEDROOMQueue9PutInNodeEPNS_10CQueueHeadEPNS_10CQueueNodeE
FNDA:517,_ZN12CEDROOMQueue9PutInNodeEPNS_10CQueueHeadEPNS_10CQueueNodeE
FN:1535,_ZN12CEDROOMQueue11TakeOutNodeERPNS_10CQueueNodeER15TEDROOMPriority
FNDA:517,_ZN12CEDROOMQueue11TakeOutNodeERPNS_10CQueueNodeER15TEDROOMPriority
FN:1558,_ZN12CEDROOMQueue21CEDROOMQueueNodesPool9SetMemoryEjPNS_10CQueueNodeEPb
FNDA:6,_ZN12CEDROOMQueue21CEDROOMQueueNodesPool9SetMemoryEjPNS_10CQueueNodeEPb
FN:1569,_ZN12CEDROOMQueue21CEDROOMQueueNodesPool9AllocDataEv
FNDA:517,_ZN12CEDROOMQueue21CEDROOMQueueNodesPool9AllocDataEv
FN:1606,_ZN21CEDROOMLocalTXChannelC2Ev
FNDA:14,_ZN21CEDROOMLocalTXChannelC2Ev
FN:1621,_ZN21CEDROOMLocalTXChannel4sendEiPvP17CEDROOMMemoryPool
FNDA:4,_ZN21CEDROOMLocalTXChannel4sendEiPvP17CEDROOMMemoryPool
FN:1693,_ZN21CEDROOMLocalTXChannel6invokeEiPvP17CEDROOMMemoryPool
FNDA:209,_ZN21CEDROOMLocalTXChannel6invokeEiPvP17CEDROOMMemoryPool
FN:1782,_ZN19CEDROOMLocalCommSAP17RegisterInterfaceEjR16CEDROOMInterfaceP16CEDROOMComponent
FNDA:19,_ZN19CEDROOMLocalCommSAP17RegisterInterfaceEjR16CEDROOMInterfaceP16CEDROOMComponent
FN:1795,_ZN19CEDROOMLocalCommSAP7ConnectER16CEDROOMInterfaceS1_R22CEDROOMLocalConnectionPFiiES5_
FNDA:7,_ZN19CEDROOMLocalCommSAP7ConnectER16CEDROOMInterfaceS1_R22CEDROOMLocalConnectionPFiiES5_
FN:1860,_ZN16CEDROOMComponentC2Ejtj15TEDROOMPriorityjP22CEDROOMComponentMemory
FNDA:6,_ZN16CEDROOMComponentC2Ejtj15TEDROOMPriorityjP22CEDROOMComponentMemory
FN:1891,_ZN16CEDROOMComponentC2EPKcjtj15TEDROOMPriorityjP22CEDROOMComponentMemory
FNDA:0,_ZN16CEDROOMComponentC2EPKcjtj15TEDROOMPriorityjP22CEDROOMComponentMemory
FN:1923,_ZN16CEDROOMComponentD2Ev
FNDA:0,_ZN16CEDROOMComponentD2Ev
FN:1923,_ZN16CEDROOMComponentD0Ev
FNDA:0,_ZN16CEDROOMComponentD0Ev
FN:1930,_ZN16CEDROOMComponent13EDROOMDestroyEv
FNDA:0,_ZN16CEDROOMComponent13EDROOMDestroyEv
FN:1969,_ZN16CEDROOMComponent11EDROOMStartEv
FNDA:6,_ZN16CEDROOMComponent11EDROOMStartEv
FN:1984,_ZN16CEDROOMComponent12EDROOMNewMsgEv
FNDA:521,_ZN16CEDROOMComponent12EDROOMNewMsgEv
FN:2009,_ZN16CEDROOMComponent17EDROOMFreeMessageERP14CEDROOMMessage
FNDA:521,_ZN16CEDROOMComponent17EDROOMFreeMessageERP14CEDROOMMessage
FN:2037,_ZN16CEDROOMComponent21EDROOMFreeMsgBackDataEv
FNDA:730,_ZN16CEDROOMComponent21EDROOMFreeMsgBackDataEv
FN:2055,_ZN16CEDROOMComponent19EDROOMComponentTaskEv
FNDA:6,_ZN16CEDROOMComponent19EDROOMComponentTaskEv
FN:2071,_ZN22CEDROOMComponentMemory9SetMemoryEjP14CEDROOMMessagePbjPN12CEDROOMQueue10CQueueNodeES2_PNS3_10CQueueHeadE
FNDA:6,_ZN22CEDROOMComponentMemory9SetMemoryEjP14CEDROOMMessagePbjPN12CEDROOMQueue10CQueueNodeES2_PNS3_10CQueueHeadE
DA:102,25
DA:108,25
DA:111,25
DA:113,246
DA:114,221
DA:117,25
DA:120,25
DA:123,25
DA:125,25
DA:127,0
DA:128,0
DA:135,828
DA:139,828
DA:147,1348
DA:149,1348
DA:153,1348
DA:156,1348
DA:159,1348
DA:160,1348
DA:163,1348
DA:164,1348
DA:165,1348
DA:169,1348
DA:171,1348
DA:174,1348
DA:176,1348
DA:178,1348
DA:181,0
DA:184,1348
DA:191,1339
DA:199,1339
DA:202,1339
DA:204,1339
DA:206,1339
DA:210,0
DA:215,1339
DA:218,1339
DA:221,1339
DA:222,0
DA:224,1339
DA:226,1339
DA:229,1339
DA:244,7
DA:245,7
DA:248,7
DA:250,7
DA:256,218
DA:260,436
DA:268,218
DA:272,218
DA:274,218
DA:276,218
DA:278,218
DA:285,217
DA:289,217
DA:291,217
DA:293,217
DA:295,217
DA:330,81
DA:332,81
DA:333,81
DA:334,81
DA:335,81
DA:336,81
DA:337,81
DA:338,81
DA:340,81
DA:345,218
DA:347,218
DA:352,308
DA:353,308
DA:357,0
DA:358,0
DA:359,0
DA:360,0
DA:362,0
DA:368,0
DA:372,0
DA:373,0
DA:376,0
DA:381,0
DA:382,0
DA:390,6
DA:391,6
DA:392,6
DA:393,6
DA:394,6
DA:399,209
DA:401,209
DA:403,209
DA:407,209
DA:410,209
DA:412,209
DA:413,209
DA:415,209
DA:416,0
DA:417,0
DA:420,209
DA:422,209
DA:423,209
DA:425,209
DA:432,299
DA:434,299
DA:436,299
DA:438,299
DA:440,299
DA:442,299
DA:446,299
DA:448,299
DA:457,6
DA:458,6
DA:459,6
DA:461,6
DA:463,6
DA:465,0
DA:466,0
DA:471,209
DA:473,209
DA:474,209
DA:478,209
DA:480,209
DA:481,209
DA:484,6
DA:487,6
DA:490,6
DA:492,9
DA:494,9
DA:498,3
DA:501,3
DA:504,3
DA:506,302
DA:508,302
DA:543,0
DA:546,0
DA:548,0
DA:550,4
DA:555,4
DA:557,4
DA:562,0
DA:564,0
DA:570,209
DA:573,209
DA:580,209
DA:582,209
DA:588,308
DA:589,308
DA:592,0
DA:593,0
DA:601,1
DA:602,1
DA:603,1
DA:605,1
DA:608,1
DA:610,0
DA:611,0
DA:612,0
DA:613,0
DA:614,0
DA:615,0
DA:618,0
DA:620,0
DA:622,0
DA:623,0
DA:624,0
DA:625,0
DA:626,0
DA:628,0
DA:630,1
DA:632,1
DA:633,1
DA:635,1
DA:637,1
DA:638,1
DA:640,2
DA:642,2
DA:644,2
DA:645,2
DA:646,2
DA:647,2
DA:648,2
DA:649,2
DA:651,2
DA:653,5
DA:659,5
DA:662,5
DA:665,0
DA:667,5
DA:670,0
DA:675,5
DA:679,5
DA:683,5
DA:686,5
DA:689,5
DA:691,5
DA:692,5
DA:693,0
DA:698,5
DA:701,5
DA:704,5
DA:709,5
DA:711,5
DA:716,0
DA:719,0
DA:721,0
DA:723,0
DA:724,0
DA:726,0
DA:728,0
DA:730,0
DA:731,0
DA:732,0
DA:734,0
DA:737,0
DA:739,0
DA:740,0
DA:741,0
DA:742,0
DA:743,0
DA:746,0
DA:748,0
DA:750,0
DA:751,0
DA:752,0
DA:753,0
DA:755,0
DA:790,302
DA:791,302
DA:792,302
DA:793,302
DA:795,0
DA:796,0
DA:807,3
DA:808,3
DA:810,3
DA:812,3
DA:813,3
DA:815,3
DA:820,302
DA:822,302
DA:833,0
DA:835,0
DA:837,0
DA:839,0
DA:842,0
DA:849,0
DA:850,0
DA:851,0
DA:856,0
DA:857,0
DA:858,0
DA:859,0
DA:870,3
DA:871,3
DA:873,3
DA:876,6
DA:880,3
DA:882,3
DA:884,3
DA:886,3
DA:888,3
DA:890,3
DA:895,3
DA:901,3
DA:903,3
DA:904,3
DA:908,3
DA:911,3
DA:914,3
DA:918,302
DA:921,302
DA:923,301
DA:926,301
DA:929,301
DA:931,301
DA:934,301
DA:937,301
DA:938,301
DA:940,301
DA:942,300
DA:947,300
DA:950,299
DA:954,299
DA:958,299
DA:961,299
DA:965,299
DA:968,299
DA:971,299
DA:973,299
DA:975,0
DA:979,299
DA:984,299
DA:987,299
DA:992,299
DA:994,0
DA:996,0
DA:998,0
DA:1001,0
DA:1004,0
DA:1007,0
DA:1012,0
DA:1015,0
DA:1018,0
DA:1020,0
DA:1022,0
DA:1026,0
DA:1031,0
DA:1034,0
DA:1037,0
DA:1044,299
DA:1056,302
DA:1062,302
DA:1065,302
DA:1067,302
DA:1069,0
DA:1072,0
DA:1079,302
DA:1082,302
DA:1085,302
DA:1088,302
DA:1091,302
DA:1093,302
DA:1095,302
DA:1100,302
DA:1103,302
DA:1107,302
DA:1111,302
DA:1113,302
DA:1115,302
DA:1117,302
DA:1119,302
DA:1121,302
DA:1123,302
DA:1125,302
DA:1127,302
DA:1129,302
DA:1133,302
DA:1137,302
DA:1139,302
DA:1143,0
DA:1144,0
DA:1150,0
DA:1152,0
DA:1153,0
DA:1157,0
DA:1160,0
DA:1166,0
DA:1170,0
DA:1173,0
DA:1177,0
DA:1179,0
DA:1181,0
DA:1184,0
DA:1187,0
DA:1188,0
DA:1192,0
DA:1200,302
DA:1202,302
DA:1203,302
DA:1209,302
DA:1211,302
DA:1215,302
DA:1219,302
DA:1220,301
DA:1225,301
DA:1230,301
DA:1236,3
DA:1240,3
DA:1241,3
DA:1243,3
DA:1248,3
DA:1255,3
DA:1258,3
DA:1260,3
DA:1265,3
DA:1268,3
DA:1271,3
DA:1276,302
DA:1278,302
DA:1310,73
DA:1311,73
DA:1312,73
DA:1313,73
DA:1318,48
DA:1319,48
DA:1320,48
DA:1321,48
DA:1322,48
DA:1323,48
DA:1328,6
DA:1330,6
DA:1331,6
DA:1335,6
DA:1337,6
DA:1338,6
DA:1339,6
DA:1341,6
DA:1342,6
DA:1344,6
DA:1345,6
DA:1347,54
DA:1348,48
DA:1350,6
DA:1352,6
DA:1361,517
DA:1363,517
DA:1369,517
DA:1371,517
DA:1375,517
DA:1376,517
DA:1377,517
DA:1379,517
DA:1383,517
DA:1385,517
DA:1389,517
DA:1391,517
DA:1392,517
DA:1396,517
DA:1401,521
DA:1408,521
DA:1412,521
DA:1414,521
DA:1418,521
DA:1421,521
DA:1427,517
DA:1434,517
DA:1436,517
DA:1438,517
DA:1442,517
DA:1444,517
DA:1446,517
DA:1450,517
DA:1452,517
DA:1456,517
DA:1460,517
DA:1462,517
DA:1464,517
DA:1466,517
DA:1467,517
DA:1469,0
DA:1471,0
DA:1472,0
DA:1473,0
DA:1476,0
DA:1478,0
DA:1480,0
DA:1482,0
DA:1483,0
DA:1484,0
DA:1488,0
DA:1489,0
DA:1491,0
DA:1493,0
DA:1494,0
DA:1495,0
DA:1502,517
DA:1511,517
DA:1512,517
DA:1514,517
DA:1516,0
DA:1517,0
DA:1518,0
DA:1521,517
DA:1523,517
DA:1526,517
DA:1535,517
DA:1540,517
DA:1542,517
DA:1545,517
DA:1549,517
DA:1551,517
DA:1553,517
DA:1558,6
DA:1561,6
DA:1564,6
DA:1569,517
DA:1571,517
DA:1606,14
DA:1608,14
DA:1609,14
DA:1611,14
DA:1612,14
DA:1613,14
DA:1614,14
DA:1616,14
DA:1621,4
DA:1627,4
DA:1628,4
DA:1629,0
DA:1632,0
DA:1634,0
DA:1639,4
DA:1642,4
DA:1645,0
DA:1647,0
DA:1649,4
DA:1652,0
DA:1654,0
DA:1658,4
DA:1659,4
DA:1664,4
DA:1667,4
DA:1670,4
DA:1673,4
DA:1676,4
DA:1679,4
DA:1682,4
DA:1683,4
DA:1684,4
DA:1688,4
DA:1693,209
DA:1697,209
DA:1704,209
DA:1709,209
DA:1712,209
DA:1715,209
DA:1718,209
DA:1721,209
DA:1722,209
DA:1723,0
DA:1726,209
DA:1731,209
DA:1735,209
DA:1738,209
DA:1741,209
DA:1744,209
DA:1747,209
DA:1749,209
DA:1751,0
DA:1753,0
DA:1754,0
DA:1755,0
DA:1756,0
DA:1757,0
DA:1758,0
DA:1761,209
DA:1763,209
DA:1765,209
DA:1767,209
DA:1771,209
DA:1782,19
DA:1785,19
DA:1787,19
DA:1789,19
DA:1795,7
DA:1801,7
DA:1803,7
DA:1805,7
DA:1807,7
DA:1811,7
DA:1812,7
DA:1816,7
DA:1817,7
DA:1818,7
DA:1819,7
DA:1823,7
DA:1824,7
DA:1826,7
DA:1860,6
DA:1862,6
DA:1863,6
DA:1864,6
DA:1867,6
DA:1871,6
DA:1873,6
DA:1875,6
DA:1877,6
DA:1879,6
DA:1880,6
DA:1882,6
DA:1884,6
DA:1886,6
DA:1891,0
DA:1894,0
DA:1895,0
DA:1896,0
DA:1899,0
DA:1903,0
DA:1905,0
DA:1907,0
DA:1909,0
DA:1911,0
DA:1912,0
DA:1914,0
DA:1916,0
DA:1918,0
DA:1923,0
DA:1925,0
DA:1923,0
DA:1925,0
DA:1930,0
DA:1934,0
DA:1936,0
DA:1938,0
DA:1940,0
DA:1943,0
DA:1946,0
DA:1950,0
DA:1952,0
DA:1955,0
DA:1959,0
DA:1962,0
DA:1964,0
DA:1969,6
DA:1972,6
DA:1974,6
DA:1976,6
DA:1984,521
DA:1987,521
DA:1990,521
DA:1993,521
DA:1996,521
DA:1999,521
DA:2002,517
DA:2004,517
DA:2009,521
DA:2012,521
DA:2014,515
DA:2015,217
DA:2016,217
DA:2018,0
DA:2024,515
DA:2026,515
DA:2027,515
DA:2029,515
DA:2032,521
DA:2037,730
DA:2039,730
DA:2040,0
DA:2041,0
DA:2042,0
DA:2044,0
DA:2048,730
DA:2055,6
DA:2058,6
DA:2060,6
DA:2062,0
DA:2071,6
DA:2078,6
DA:2080,6
DA:2083,6
DA:2085,6
end_of_record
TN:
SF:/home/atcsol/git/Proyecto-Final-OBDH-UAHExplorer/uah_exp_freertos_project_2024/service_libraries/edroomsl/edroomsl/src/edroomtc.cpp
FN:9,_ZN13CEDROOMstreamC2Ev
FNDA:0,_ZN13CEDROOMstreamC2Ev
FN:21,_ZN13CEDROOMstreamC2EPKc
FNDA:0,_ZN13CEDROOMstreamC2EPKc
FN:26,_ZN13CEDROOMstream4openEPKci
FNDA:0,_ZN13CEDROOMstream4openEPKci
FN:31,_ZN13CEDROOMstream5closeEv
FNDA:0,_ZN13CEDROOMstream5closeEv
FN:36,_ZN13CEDROOMstream6reopenEv
FNDA:0,_ZN13CEDROOMstream6reopenEv
FN:41,_ZN13CEDROOMstream7is_openEv
FNDA:0,_ZN13CEDROOMstream7is_openEv
FN:46,_ZN13CEDROOMstream4goodEv
FNDA:0,_ZN13CEDROOMstream4goodEv
FN:51,_ZN13CEDROOMstreamlsEPKc
FNDA:0,_ZN13CEDROOMstreamlsEPKc
FN:58,_ZN13CEDROOMstreamlsERKi
FNDA:0,_ZN13CEDROOMstreamlsERKi
FN:66,_ZN13CEDROOMstreamlsERKj
FNDA:0,_ZN13CEDROOMstreamlsERKj
FN:74,_ZN13CEDROOMstreamlsERKf
FNDA:0,_ZN13CEDROOMstreamlsERKf
DA:9,0
DA:11,0
DA:14,0
DA:16,0
DA:19,0
DA:21,0
DA:23,0
DA:24,0
DA:26,0
DA:29,0
DA:31,0
DA:34,0
DA:36,0
DA:39,0
DA:41,0
DA:43,0
DA:46,0
DA:48,0
DA:51,0
DA:54,0
DA:55,0
DA:58,0
DA:61,0
DA:63,0
DA:66,0
DA:69,0
DA:71,0
DA:74,0
DA:76,0
end_of_record
TN:
SF:/home/atcsol/git/Proyecto-Final-OBDH-UAHExplorer/uah_exp_freertos_project_2024/service_libraries/edroomsl/edroomsl_types/include/edroomsl_types/edroomsl_types.h
FN:33,_edroom_switch16
FNDA:0,_edroom_switch16
FN:38,_edroom_switch32
FNDA:0,_edroom_switch32
FN:46,_edroom_switch64
FNDA:0,_edroom_switch64
DA:33,0
DA:35,0
DA:38,0
DA:40,0
DA:41,0
DA:42,0
DA:46,0
DA:48,0
DA:49,0
DA:50,0
DA:51,0
DA:52,0
DA:53,0
DA:54,0
end_of_record
SF:/home/atcsol/git/Proyecto-Final-OBDH-UAHExplorer/uah_exp_freertos_project_2024/service_libraries/edroomsl/edroomsl_types/src/edroomsl_types.cpp
FN:4,TEDROOMUInt64_Serialize
FNDA:0,TEDROOMUInt64_Serialize
FN:9,TEDROOMUInt64_Deserialize
FNDA:0,TEDROOMUInt64_Deserialize
FN:14,TEDROOMUInt32_Serialize
FNDA:0,TEDROOMUInt32_Serialize
FN:19,TEDROOMUInt32_Deserialize
FNDA:0,TEDROOMUInt32_Deserialize
FN:24,TEDROOMUInt16_Serialize
FNDA:0,TEDROOMUInt16_Serialize
FN:29,TEDROOMUInt8_Serialize
FNDA:0,TEDROOMUInt8_Serialize
FN:34,TEDROOMUInt8_Deserialize
FNDA:0,TEDROOMUInt8_Deserialize
FN:39,TEDROOMUInt16_Deserialize
FNDA:0,TEDROOMUInt16_Deserialize
DA:4,0
DA:6,0
DA:7,0
DA:9,0
DA:11,0
DA:12,0
DA:14,0
DA:16,0
DA:17,0
DA:19,0
DA:21,0
DA:22,0
DA:24,0
DA:26,0
DA:27,0
DA:29,0
DA:31,0
DA:32,0
DA:34,0
DA:36,0
DA:37,0
DA:39,0
DA:41,0
DA:42,0
end_of_record
TN:
SF:/home/atcsol/git/Proyecto-Final-OBDH-UAHExplorer/uah_exp_freertos_project_2024/service_libraries/emu_tc_programming/src/emu_tc_programming.cpp
end_of_record
